
Nucleo_F767ZI_DriverDev.elf:     file format elf32-littlearm

Sections:
Idx Name          Size      VMA       LMA       File off  Algn
  0 .isr_vector   000001f8  08000000  08000000  00001000  2**0
                  CONTENTS, ALLOC, LOAD, READONLY, DATA
  1 .text         00002088  080001f8  080001f8  000011f8  2**2
                  CONTENTS, ALLOC, LOAD, READONLY, CODE
  2 .rodata       00000000  08002280  08002280  00004004  2**0
                  CONTENTS, ALLOC, LOAD, DATA
  3 .ARM.extab    00000000  08002280  08002280  00004004  2**0
                  CONTENTS, READONLY
  4 .ARM          00000000  08002280  08002280  00004004  2**0
                  CONTENTS, READONLY
  5 .preinit_array 00000000  08002280  08002280  00004004  2**0
                  CONTENTS, ALLOC, LOAD, DATA
  6 .init_array   00000004  08002280  08002280  00003280  2**2
                  CONTENTS, ALLOC, LOAD, READONLY, DATA
  7 .fini_array   00000004  08002284  08002284  00003284  2**2
                  CONTENTS, ALLOC, LOAD, READONLY, DATA
  8 .data         00000004  20000000  08002288  00004000  2**0
                  CONTENTS, ALLOC, LOAD, DATA
  9 .bss          0000010c  20000004  0800228c  00004004  2**2
                  ALLOC
 10 ._user_heap_stack 00000600  20000110  0800228c  00004110  2**0
                  ALLOC
 11 .ARM.attributes 0000002e  00000000  00000000  00004004  2**0
                  CONTENTS, READONLY
 12 .debug_info   00004358  00000000  00000000  00004032  2**0
                  CONTENTS, READONLY, DEBUGGING, OCTETS
 13 .debug_abbrev 00000e2a  00000000  00000000  0000838a  2**0
                  CONTENTS, READONLY, DEBUGGING, OCTETS
 14 .debug_aranges 00000558  00000000  00000000  000091b8  2**3
                  CONTENTS, READONLY, DEBUGGING, OCTETS
 15 .debug_rnglists 000003f6  00000000  00000000  00009710  2**0
                  CONTENTS, READONLY, DEBUGGING, OCTETS
 16 .debug_macro  0001e754  00000000  00000000  00009b06  2**0
                  CONTENTS, READONLY, DEBUGGING, OCTETS
 17 .debug_line   00005567  00000000  00000000  0002825a  2**0
                  CONTENTS, READONLY, DEBUGGING, OCTETS
 18 .debug_str    000a9604  00000000  00000000  0002d7c1  2**0
                  CONTENTS, READONLY, DEBUGGING, OCTETS
 19 .comment      00000043  00000000  00000000  000d6dc5  2**0
                  CONTENTS, READONLY
 20 .debug_frame  0000141c  00000000  00000000  000d6e08  2**2
                  CONTENTS, READONLY, DEBUGGING, OCTETS
 21 .debug_line_str 00000061  00000000  00000000  000d8224  2**0
                  CONTENTS, READONLY, DEBUGGING, OCTETS

Disassembly of section .text:

080001f8 <__do_global_dtors_aux>:
 80001f8:	b510      	push	{r4, lr}
 80001fa:	4c05      	ldr	r4, [pc, #20]	@ (8000210 <__do_global_dtors_aux+0x18>)
 80001fc:	7823      	ldrb	r3, [r4, #0]
 80001fe:	b933      	cbnz	r3, 800020e <__do_global_dtors_aux+0x16>
 8000200:	4b04      	ldr	r3, [pc, #16]	@ (8000214 <__do_global_dtors_aux+0x1c>)
 8000202:	b113      	cbz	r3, 800020a <__do_global_dtors_aux+0x12>
 8000204:	4804      	ldr	r0, [pc, #16]	@ (8000218 <__do_global_dtors_aux+0x20>)
 8000206:	f3af 8000 	nop.w
 800020a:	2301      	movs	r3, #1
 800020c:	7023      	strb	r3, [r4, #0]
 800020e:	bd10      	pop	{r4, pc}
 8000210:	20000004 	.word	0x20000004
 8000214:	00000000 	.word	0x00000000
 8000218:	08002268 	.word	0x08002268

0800021c <frame_dummy>:
 800021c:	b508      	push	{r3, lr}
 800021e:	4b03      	ldr	r3, [pc, #12]	@ (800022c <frame_dummy+0x10>)
 8000220:	b11b      	cbz	r3, 800022a <frame_dummy+0xe>
 8000222:	4903      	ldr	r1, [pc, #12]	@ (8000230 <frame_dummy+0x14>)
 8000224:	4803      	ldr	r0, [pc, #12]	@ (8000234 <frame_dummy+0x18>)
 8000226:	f3af 8000 	nop.w
 800022a:	bd08      	pop	{r3, pc}
 800022c:	00000000 	.word	0x00000000
 8000230:	20000008 	.word	0x20000008
 8000234:	08002268 	.word	0x08002268

08000238 <EXTI0_IRQHandler>:
#include "stm32f767xx_systick_driver.h"
#include "stm32f767xx_usart_driver.h"
#include "stm32f767xx_spi_driver.h"
#include "stm32f767xx_i2c_driver.h"
void EXTI0_IRQHandler(void)
{
 8000238:	b580      	push	{r7, lr}
 800023a:	af00      	add	r7, sp, #0
	GPIO_IRQHandling(GPIO_PIN_NO_0);
 800023c:	2000      	movs	r0, #0
 800023e:	f000 fc57 	bl	8000af0 <GPIO_IRQHandling>
}
 8000242:	bf00      	nop
 8000244:	bd80      	pop	{r7, pc}

08000246 <EXTI1_IRQHandler>:

void EXTI1_IRQHandler(void)
{
 8000246:	b580      	push	{r7, lr}
 8000248:	af00      	add	r7, sp, #0
	GPIO_IRQHandling(GPIO_PIN_NO_1);
 800024a:	2001      	movs	r0, #1
 800024c:	f000 fc50 	bl	8000af0 <GPIO_IRQHandling>
}
 8000250:	bf00      	nop
 8000252:	bd80      	pop	{r7, pc}

08000254 <EXTI2_IRQHandler>:

void EXTI2_IRQHandler(void)
{
 8000254:	b580      	push	{r7, lr}
 8000256:	af00      	add	r7, sp, #0
	GPIO_IRQHandling(GPIO_PIN_NO_2);
 8000258:	2002      	movs	r0, #2
 800025a:	f000 fc49 	bl	8000af0 <GPIO_IRQHandling>
}
 800025e:	bf00      	nop
 8000260:	bd80      	pop	{r7, pc}

08000262 <EXTI3_IRQHandler>:

void EXTI3_IRQHandler(void)
{
 8000262:	b580      	push	{r7, lr}
 8000264:	af00      	add	r7, sp, #0
	GPIO_IRQHandling(GPIO_PIN_NO_3);
 8000266:	2003      	movs	r0, #3
 8000268:	f000 fc42 	bl	8000af0 <GPIO_IRQHandling>
}
 800026c:	bf00      	nop
 800026e:	bd80      	pop	{r7, pc}

08000270 <EXTI4_IRQHandler>:

void EXTI4_IRQHandler(void)
{
 8000270:	b580      	push	{r7, lr}
 8000272:	af00      	add	r7, sp, #0
	GPIO_IRQHandling(GPIO_PIN_NO_4);
 8000274:	2004      	movs	r0, #4
 8000276:	f000 fc3b 	bl	8000af0 <GPIO_IRQHandling>
}
 800027a:	bf00      	nop
 800027c:	bd80      	pop	{r7, pc}

0800027e <EXTI9_5_IRQHandler>:

void EXTI9_5_IRQHandler(void)
{
 800027e:	b580      	push	{r7, lr}
 8000280:	b082      	sub	sp, #8
 8000282:	af00      	add	r7, sp, #0
	for (uint8_t pin = GPIO_PIN_NO_5; pin <= GPIO_PIN_NO_9; pin++)
 8000284:	2305      	movs	r3, #5
 8000286:	71fb      	strb	r3, [r7, #7]
 8000288:	e006      	b.n	8000298 <EXTI9_5_IRQHandler+0x1a>
	{
		GPIO_IRQHandling(pin);
 800028a:	79fb      	ldrb	r3, [r7, #7]
 800028c:	4618      	mov	r0, r3
 800028e:	f000 fc2f 	bl	8000af0 <GPIO_IRQHandling>
	for (uint8_t pin = GPIO_PIN_NO_5; pin <= GPIO_PIN_NO_9; pin++)
 8000292:	79fb      	ldrb	r3, [r7, #7]
 8000294:	3301      	adds	r3, #1
 8000296:	71fb      	strb	r3, [r7, #7]
 8000298:	79fb      	ldrb	r3, [r7, #7]
 800029a:	2b09      	cmp	r3, #9
 800029c:	d9f5      	bls.n	800028a <EXTI9_5_IRQHandler+0xc>
	}
}
 800029e:	bf00      	nop
 80002a0:	bf00      	nop
 80002a2:	3708      	adds	r7, #8
 80002a4:	46bd      	mov	sp, r7
 80002a6:	bd80      	pop	{r7, pc}

080002a8 <EXTI15_10_IRQHandler>:

void EXTI15_10_IRQHandler(void)
{
 80002a8:	b580      	push	{r7, lr}
 80002aa:	b082      	sub	sp, #8
 80002ac:	af00      	add	r7, sp, #0
	for (uint8_t pin = GPIO_PIN_NO_10; pin <= GPIO_PIN_NO_15; pin++)
 80002ae:	230a      	movs	r3, #10
 80002b0:	71fb      	strb	r3, [r7, #7]
 80002b2:	e006      	b.n	80002c2 <EXTI15_10_IRQHandler+0x1a>
	{
		GPIO_IRQHandling(pin);
 80002b4:	79fb      	ldrb	r3, [r7, #7]
 80002b6:	4618      	mov	r0, r3
 80002b8:	f000 fc1a 	bl	8000af0 <GPIO_IRQHandling>
	for (uint8_t pin = GPIO_PIN_NO_10; pin <= GPIO_PIN_NO_15; pin++)
 80002bc:	79fb      	ldrb	r3, [r7, #7]
 80002be:	3301      	adds	r3, #1
 80002c0:	71fb      	strb	r3, [r7, #7]
 80002c2:	79fb      	ldrb	r3, [r7, #7]
 80002c4:	2b0f      	cmp	r3, #15
 80002c6:	d9f5      	bls.n	80002b4 <EXTI15_10_IRQHandler+0xc>
	}
}
 80002c8:	bf00      	nop
 80002ca:	bf00      	nop
 80002cc:	3708      	adds	r7, #8
 80002ce:	46bd      	mov	sp, r7
 80002d0:	bd80      	pop	{r7, pc}

080002d2 <SysTick_Handler>:
void SysTick_Handler(void)
{
 80002d2:	b580      	push	{r7, lr}
 80002d4:	af00      	add	r7, sp, #0
	SysTick_IncTick();
 80002d6:	f001 fbff 	bl	8001ad8 <SysTick_IncTick>
}
 80002da:	bf00      	nop
 80002dc:	bd80      	pop	{r7, pc}
	...

080002e0 <USART1_IRQHandler>:
void USART1_IRQHandler(void)
{
 80002e0:	b580      	push	{r7, lr}
 80002e2:	af00      	add	r7, sp, #0
	USART_IRQHandling(USART1);
 80002e4:	4802      	ldr	r0, [pc, #8]	@ (80002f0 <USART1_IRQHandler+0x10>)
 80002e6:	f001 fcfe 	bl	8001ce6 <USART_IRQHandling>
}
 80002ea:	bf00      	nop
 80002ec:	bd80      	pop	{r7, pc}
 80002ee:	bf00      	nop
 80002f0:	40011000 	.word	0x40011000

080002f4 <USART2_IRQHandler>:
void USART2_IRQHandler(void)
{
 80002f4:	b580      	push	{r7, lr}
 80002f6:	af00      	add	r7, sp, #0
	USART_IRQHandling(USART2);
 80002f8:	4802      	ldr	r0, [pc, #8]	@ (8000304 <USART2_IRQHandler+0x10>)
 80002fa:	f001 fcf4 	bl	8001ce6 <USART_IRQHandling>
}
 80002fe:	bf00      	nop
 8000300:	bd80      	pop	{r7, pc}
 8000302:	bf00      	nop
 8000304:	40004400 	.word	0x40004400

08000308 <USART3_IRQHandler>:
void USART3_IRQHandler(void)
{
 8000308:	b580      	push	{r7, lr}
 800030a:	af00      	add	r7, sp, #0
	USART_IRQHandling(USART3);
 800030c:	4802      	ldr	r0, [pc, #8]	@ (8000318 <USART3_IRQHandler+0x10>)
 800030e:	f001 fcea 	bl	8001ce6 <USART_IRQHandling>
}
 8000312:	bf00      	nop
 8000314:	bd80      	pop	{r7, pc}
 8000316:	bf00      	nop
 8000318:	40004800 	.word	0x40004800

0800031c <UART4_IRQHandler>:

void UART4_IRQHandler(void)
{
 800031c:	b580      	push	{r7, lr}
 800031e:	af00      	add	r7, sp, #0
	USART_IRQHandling(UART4);
 8000320:	4802      	ldr	r0, [pc, #8]	@ (800032c <UART4_IRQHandler+0x10>)
 8000322:	f001 fce0 	bl	8001ce6 <USART_IRQHandling>
}
 8000326:	bf00      	nop
 8000328:	bd80      	pop	{r7, pc}
 800032a:	bf00      	nop
 800032c:	40004c00 	.word	0x40004c00

08000330 <UART5_IRQHandler>:
void UART5_IRQHandler(void)
{
 8000330:	b580      	push	{r7, lr}
 8000332:	af00      	add	r7, sp, #0
	USART_IRQHandling(UART5);
 8000334:	4802      	ldr	r0, [pc, #8]	@ (8000340 <UART5_IRQHandler+0x10>)
 8000336:	f001 fcd6 	bl	8001ce6 <USART_IRQHandling>
}
 800033a:	bf00      	nop
 800033c:	bd80      	pop	{r7, pc}
 800033e:	bf00      	nop
 8000340:	40005000 	.word	0x40005000

08000344 <USART6_IRQHandler>:
void USART6_IRQHandler(void)
{
 8000344:	b580      	push	{r7, lr}
 8000346:	af00      	add	r7, sp, #0
	USART_IRQHandling(USART6);
 8000348:	4802      	ldr	r0, [pc, #8]	@ (8000354 <USART6_IRQHandler+0x10>)
 800034a:	f001 fccc 	bl	8001ce6 <USART_IRQHandling>
}
 800034e:	bf00      	nop
 8000350:	bd80      	pop	{r7, pc}
 8000352:	bf00      	nop
 8000354:	40011400 	.word	0x40011400

08000358 <UART7_IRQHandler>:
void UART7_IRQHandler(void)
{
 8000358:	b580      	push	{r7, lr}
 800035a:	af00      	add	r7, sp, #0
	USART_IRQHandling(UART7);
 800035c:	4802      	ldr	r0, [pc, #8]	@ (8000368 <UART7_IRQHandler+0x10>)
 800035e:	f001 fcc2 	bl	8001ce6 <USART_IRQHandling>
}
 8000362:	bf00      	nop
 8000364:	bd80      	pop	{r7, pc}
 8000366:	bf00      	nop
 8000368:	40007800 	.word	0x40007800

0800036c <UART8_IRQHandler>:
void UART8_IRQHandler(void)
{
 800036c:	b580      	push	{r7, lr}
 800036e:	af00      	add	r7, sp, #0
	USART_IRQHandling(UART8);
 8000370:	4802      	ldr	r0, [pc, #8]	@ (800037c <UART8_IRQHandler+0x10>)
 8000372:	f001 fcb8 	bl	8001ce6 <USART_IRQHandling>
}
 8000376:	bf00      	nop
 8000378:	bd80      	pop	{r7, pc}
 800037a:	bf00      	nop
 800037c:	40007c00 	.word	0x40007c00

08000380 <SPI1_IRQHandler>:
void SPI1_IRQHandler(void)
{
 8000380:	b580      	push	{r7, lr}
 8000382:	af00      	add	r7, sp, #0
	SPI_IRQHandling(SPI1);
 8000384:	4802      	ldr	r0, [pc, #8]	@ (8000390 <SPI1_IRQHandler+0x10>)
 8000386:	f001 fa43 	bl	8001810 <SPI_IRQHandling>
}
 800038a:	bf00      	nop
 800038c:	bd80      	pop	{r7, pc}
 800038e:	bf00      	nop
 8000390:	40013000 	.word	0x40013000

08000394 <SPI2_IRQHandler>:

void SPI2_IRQHandler(void)
{
 8000394:	b580      	push	{r7, lr}
 8000396:	af00      	add	r7, sp, #0
	SPI_IRQHandling(SPI2);
 8000398:	4802      	ldr	r0, [pc, #8]	@ (80003a4 <SPI2_IRQHandler+0x10>)
 800039a:	f001 fa39 	bl	8001810 <SPI_IRQHandling>
}
 800039e:	bf00      	nop
 80003a0:	bd80      	pop	{r7, pc}
 80003a2:	bf00      	nop
 80003a4:	40003800 	.word	0x40003800

080003a8 <SPI3_IRQHandler>:

void SPI3_IRQHandler(void)
{
 80003a8:	b580      	push	{r7, lr}
 80003aa:	af00      	add	r7, sp, #0
	SPI_IRQHandling(SPI3);
 80003ac:	4802      	ldr	r0, [pc, #8]	@ (80003b8 <SPI3_IRQHandler+0x10>)
 80003ae:	f001 fa2f 	bl	8001810 <SPI_IRQHandling>
}
 80003b2:	bf00      	nop
 80003b4:	bd80      	pop	{r7, pc}
 80003b6:	bf00      	nop
 80003b8:	40003c00 	.word	0x40003c00

080003bc <SPI4_IRQHandler>:

void SPI4_IRQHandler(void)
{
 80003bc:	b580      	push	{r7, lr}
 80003be:	af00      	add	r7, sp, #0
	SPI_IRQHandling(SPI4);
 80003c0:	4802      	ldr	r0, [pc, #8]	@ (80003cc <SPI4_IRQHandler+0x10>)
 80003c2:	f001 fa25 	bl	8001810 <SPI_IRQHandling>
}
 80003c6:	bf00      	nop
 80003c8:	bd80      	pop	{r7, pc}
 80003ca:	bf00      	nop
 80003cc:	40013400 	.word	0x40013400

080003d0 <SPI5_IRQHandler>:

void SPI5_IRQHandler(void)
{
 80003d0:	b580      	push	{r7, lr}
 80003d2:	af00      	add	r7, sp, #0
	SPI_IRQHandling(SPI5);
 80003d4:	4802      	ldr	r0, [pc, #8]	@ (80003e0 <SPI5_IRQHandler+0x10>)
 80003d6:	f001 fa1b 	bl	8001810 <SPI_IRQHandling>
}
 80003da:	bf00      	nop
 80003dc:	bd80      	pop	{r7, pc}
 80003de:	bf00      	nop
 80003e0:	40015000 	.word	0x40015000

080003e4 <SPI6_IRQHandler>:

void SPI6_IRQHandler(void)
{
 80003e4:	b580      	push	{r7, lr}
 80003e6:	af00      	add	r7, sp, #0
	SPI_IRQHandling(SPI6);
 80003e8:	4802      	ldr	r0, [pc, #8]	@ (80003f4 <SPI6_IRQHandler+0x10>)
 80003ea:	f001 fa11 	bl	8001810 <SPI_IRQHandling>
}
 80003ee:	bf00      	nop
 80003f0:	bd80      	pop	{r7, pc}
 80003f2:	bf00      	nop
 80003f4:	40015400 	.word	0x40015400

080003f8 <I2C1_EV_IRQHandler>:
void I2C1_EV_IRQHandler(void)
{
 80003f8:	b580      	push	{r7, lr}
 80003fa:	af00      	add	r7, sp, #0
    I2C_EV_IRQHandling(I2C1);
 80003fc:	4802      	ldr	r0, [pc, #8]	@ (8000408 <I2C1_EV_IRQHandler+0x10>)
 80003fe:	f000 ff25 	bl	800124c <I2C_EV_IRQHandling>
}
 8000402:	bf00      	nop
 8000404:	bd80      	pop	{r7, pc}
 8000406:	bf00      	nop
 8000408:	40005400 	.word	0x40005400

0800040c <I2C1_ER_IRQHandler>:

void I2C1_ER_IRQHandler(void)
{
 800040c:	b580      	push	{r7, lr}
 800040e:	af00      	add	r7, sp, #0
    I2C_ER_IRQHandling(I2C1);
 8000410:	4802      	ldr	r0, [pc, #8]	@ (800041c <I2C1_ER_IRQHandler+0x10>)
 8000412:	f001 f82d 	bl	8001470 <I2C_ER_IRQHandling>
}
 8000416:	bf00      	nop
 8000418:	bd80      	pop	{r7, pc}
 800041a:	bf00      	nop
 800041c:	40005400 	.word	0x40005400

08000420 <I2C2_EV_IRQHandler>:

void I2C2_EV_IRQHandler(void)
{
 8000420:	b580      	push	{r7, lr}
 8000422:	af00      	add	r7, sp, #0
    I2C_EV_IRQHandling(I2C2);
 8000424:	4802      	ldr	r0, [pc, #8]	@ (8000430 <I2C2_EV_IRQHandler+0x10>)
 8000426:	f000 ff11 	bl	800124c <I2C_EV_IRQHandling>
}
 800042a:	bf00      	nop
 800042c:	bd80      	pop	{r7, pc}
 800042e:	bf00      	nop
 8000430:	40005800 	.word	0x40005800

08000434 <I2C2_ER_IRQHandler>:

void I2C2_ER_IRQHandler(void)
{
 8000434:	b580      	push	{r7, lr}
 8000436:	af00      	add	r7, sp, #0
    I2C_ER_IRQHandling(I2C2);
 8000438:	4802      	ldr	r0, [pc, #8]	@ (8000444 <I2C2_ER_IRQHandler+0x10>)
 800043a:	f001 f819 	bl	8001470 <I2C_ER_IRQHandling>
}
 800043e:	bf00      	nop
 8000440:	bd80      	pop	{r7, pc}
 8000442:	bf00      	nop
 8000444:	40005800 	.word	0x40005800

08000448 <I2C3_EV_IRQHandler>:

void I2C3_EV_IRQHandler(void)
{
 8000448:	b580      	push	{r7, lr}
 800044a:	af00      	add	r7, sp, #0
    I2C_EV_IRQHandling(I2C3);
 800044c:	4802      	ldr	r0, [pc, #8]	@ (8000458 <I2C3_EV_IRQHandler+0x10>)
 800044e:	f000 fefd 	bl	800124c <I2C_EV_IRQHandling>
}
 8000452:	bf00      	nop
 8000454:	bd80      	pop	{r7, pc}
 8000456:	bf00      	nop
 8000458:	40005c00 	.word	0x40005c00

0800045c <I2C3_ER_IRQHandler>:

void I2C3_ER_IRQHandler(void)
{
 800045c:	b580      	push	{r7, lr}
 800045e:	af00      	add	r7, sp, #0
    I2C_ER_IRQHandling(I2C3);
 8000460:	4802      	ldr	r0, [pc, #8]	@ (800046c <I2C3_ER_IRQHandler+0x10>)
 8000462:	f001 f805 	bl	8001470 <I2C_ER_IRQHandling>
}
 8000466:	bf00      	nop
 8000468:	bd80      	pop	{r7, pc}
 800046a:	bf00      	nop
 800046c:	40005c00 	.word	0x40005c00

08000470 <I2C4_EV_IRQHandler>:

void I2C4_EV_IRQHandler(void)
{
 8000470:	b580      	push	{r7, lr}
 8000472:	af00      	add	r7, sp, #0
    I2C_EV_IRQHandling(I2C4);
 8000474:	4802      	ldr	r0, [pc, #8]	@ (8000480 <I2C4_EV_IRQHandler+0x10>)
 8000476:	f000 fee9 	bl	800124c <I2C_EV_IRQHandling>
}
 800047a:	bf00      	nop
 800047c:	bd80      	pop	{r7, pc}
 800047e:	bf00      	nop
 8000480:	40006000 	.word	0x40006000

08000484 <I2C4_ER_IRQHandler>:

void I2C4_ER_IRQHandler(void)
{
 8000484:	b580      	push	{r7, lr}
 8000486:	af00      	add	r7, sp, #0
    I2C_ER_IRQHandling(I2C4);
 8000488:	4802      	ldr	r0, [pc, #8]	@ (8000494 <I2C4_ER_IRQHandler+0x10>)
 800048a:	f000 fff1 	bl	8001470 <I2C_ER_IRQHandling>
}
 800048e:	bf00      	nop
 8000490:	bd80      	pop	{r7, pc}
 8000492:	bf00      	nop
 8000494:	40006000 	.word	0x40006000

08000498 <main>:
#include "examples.h"
#include "examples_config.h"

int main(void)
{
 8000498:	b580      	push	{r7, lr}
 800049a:	af00      	add	r7, sp, #0
#elif ACTIVE_EXAMPLE == EXAMPLE_I2C1_IT_WRITE_READ_I2C2_SLAVE_TEST

    EX028_I2C1_IT_WriteRead_I2C2_Slave_Test();
#elif ACTIVE_EXAMPLE == EXAMPLE_I2C1_IT_WRITE_READ_NACK_TEST

    EX029_I2C1_IT_WriteRead_NACK_Test();
 800049c:	f001 fd56 	bl	8001f4c <EX029_I2C1_IT_WriteRead_NACK_Test>

	while (1);

#endif

	while (1)
 80004a0:	bf00      	nop
 80004a2:	e7fd      	b.n	80004a0 <main+0x8>

080004a4 <SystemInit>:
  *         SystemFrequency variable.
  * @param  None
  * @retval None
  */
void SystemInit(void)
{
 80004a4:	b480      	push	{r7}
 80004a6:	af00      	add	r7, sp, #0
  /* FPU settings ------------------------------------------------------------*/
#if (__FPU_PRESENT == 1) && (__FPU_USED == 1)
  SCB->CPACR |= ((3UL << 10*2)|(3UL << 11*2));  /* set CP10 and CP11 Full Access */
 80004a8:	4b06      	ldr	r3, [pc, #24]	@ (80004c4 <SystemInit+0x20>)
 80004aa:	f8d3 3088 	ldr.w	r3, [r3, #136]	@ 0x88
 80004ae:	4a05      	ldr	r2, [pc, #20]	@ (80004c4 <SystemInit+0x20>)
 80004b0:	f443 0370 	orr.w	r3, r3, #15728640	@ 0xf00000
 80004b4:	f8c2 3088 	str.w	r3, [r2, #136]	@ 0x88

  /* Configure the Vector Table location -------------------------------------*/
#if defined(USER_VECT_TAB_ADDRESS)
  SCB->VTOR = VECT_TAB_BASE_ADDRESS | VECT_TAB_OFFSET; /* Vector Table Relocation in Internal SRAM */
#endif /* USER_VECT_TAB_ADDRESS */
}
 80004b8:	bf00      	nop
 80004ba:	46bd      	mov	sp, r7
 80004bc:	f85d 7b04 	ldr.w	r7, [sp], #4
 80004c0:	4770      	bx	lr
 80004c2:	bf00      	nop
 80004c4:	e000ed00 	.word	0xe000ed00

080004c8 <Reset_Handler>:

    .section  .text.Reset_Handler
  .weak  Reset_Handler
  .type  Reset_Handler, %function
Reset_Handler:  
  ldr   sp, =_estack      /* set stack pointer */
 80004c8:	f8df d034 	ldr.w	sp, [pc, #52]	@ 8000500 <LoopFillZerobss+0xe>

/* Call the clock system initialization function.*/
  bl  SystemInit   
 80004cc:	f7ff ffea 	bl	80004a4 <SystemInit>

/* Copy the data segment initializers from flash to SRAM */  
  ldr r0, =_sdata
 80004d0:	480c      	ldr	r0, [pc, #48]	@ (8000504 <LoopFillZerobss+0x12>)
  ldr r1, =_edata
 80004d2:	490d      	ldr	r1, [pc, #52]	@ (8000508 <LoopFillZerobss+0x16>)
  ldr r2, =_sidata
 80004d4:	4a0d      	ldr	r2, [pc, #52]	@ (800050c <LoopFillZerobss+0x1a>)
  movs r3, #0
 80004d6:	2300      	movs	r3, #0
  b LoopCopyDataInit
 80004d8:	e002      	b.n	80004e0 <LoopCopyDataInit>

080004da <CopyDataInit>:

CopyDataInit:
  ldr r4, [r2, r3]
 80004da:	58d4      	ldr	r4, [r2, r3]
  str r4, [r0, r3]
 80004dc:	50c4      	str	r4, [r0, r3]
  adds r3, r3, #4
 80004de:	3304      	adds	r3, #4

080004e0 <LoopCopyDataInit>:

LoopCopyDataInit:
  adds r4, r0, r3
 80004e0:	18c4      	adds	r4, r0, r3
  cmp r4, r1
 80004e2:	428c      	cmp	r4, r1
  bcc CopyDataInit
 80004e4:	d3f9      	bcc.n	80004da <CopyDataInit>
  
/* Zero fill the bss segment. */
  ldr r2, =_sbss
 80004e6:	4a0a      	ldr	r2, [pc, #40]	@ (8000510 <LoopFillZerobss+0x1e>)
  ldr r4, =_ebss
 80004e8:	4c0a      	ldr	r4, [pc, #40]	@ (8000514 <LoopFillZerobss+0x22>)
  movs r3, #0
 80004ea:	2300      	movs	r3, #0
  b LoopFillZerobss
 80004ec:	e001      	b.n	80004f2 <LoopFillZerobss>

080004ee <FillZerobss>:

FillZerobss:
  str  r3, [r2]
 80004ee:	6013      	str	r3, [r2, #0]
  adds r2, r2, #4
 80004f0:	3204      	adds	r2, #4

080004f2 <LoopFillZerobss>:

LoopFillZerobss:
  cmp r2, r4
 80004f2:	42a2      	cmp	r2, r4
  bcc FillZerobss
 80004f4:	d3fb      	bcc.n	80004ee <FillZerobss>
  
/* Call static constructors */
    bl __libc_init_array
 80004f6:	f001 fe93 	bl	8002220 <__libc_init_array>
/* Call the application's entry point.*/
  bl  main
 80004fa:	f7ff ffcd 	bl	8000498 <main>
  bx  lr    
 80004fe:	4770      	bx	lr
  ldr   sp, =_estack      /* set stack pointer */
 8000500:	20080000 	.word	0x20080000
  ldr r0, =_sdata
 8000504:	20000000 	.word	0x20000000
  ldr r1, =_edata
 8000508:	20000004 	.word	0x20000004
  ldr r2, =_sidata
 800050c:	08002288 	.word	0x08002288
  ldr r2, =_sbss
 8000510:	20000004 	.word	0x20000004
  ldr r4, =_ebss
 8000514:	20000110 	.word	0x20000110

08000518 <ADC_IRQHandler>:
 * @retval None       
*/
    .section  .text.Default_Handler,"ax",%progbits
Default_Handler:
Infinite_Loop:
  b  Infinite_Loop
 8000518:	e7fe      	b.n	8000518 <ADC_IRQHandler>
	...

0800051c <GPIO_PeriClockControl>:
static GPIO_RegDef_t *GPIO_EXTI_PortMap[16] = {0};
/*
 * Peripheral Clock Setup
 */
void GPIO_PeriClockControl(GPIO_RegDef_t *pGPIOx, uint8_t EnorDi)
{
 800051c:	b480      	push	{r7}
 800051e:	b083      	sub	sp, #12
 8000520:	af00      	add	r7, sp, #0
 8000522:	6078      	str	r0, [r7, #4]
 8000524:	460b      	mov	r3, r1
 8000526:	70fb      	strb	r3, [r7, #3]
	if (EnorDi == ENABLE)
 8000528:	78fb      	ldrb	r3, [r7, #3]
 800052a:	2b01      	cmp	r3, #1
 800052c:	d178      	bne.n	8000620 <GPIO_PeriClockControl+0x104>
	{
		if (pGPIOx == GPIOA)
 800052e:	687b      	ldr	r3, [r7, #4]
 8000530:	4a7a      	ldr	r2, [pc, #488]	@ (800071c <GPIO_PeriClockControl+0x200>)
 8000532:	4293      	cmp	r3, r2
 8000534:	d106      	bne.n	8000544 <GPIO_PeriClockControl+0x28>
		{
			GPIOA_PCLK_EN();
 8000536:	4b7a      	ldr	r3, [pc, #488]	@ (8000720 <GPIO_PeriClockControl+0x204>)
 8000538:	6b1b      	ldr	r3, [r3, #48]	@ 0x30
 800053a:	4a79      	ldr	r2, [pc, #484]	@ (8000720 <GPIO_PeriClockControl+0x204>)
 800053c:	f043 0301 	orr.w	r3, r3, #1
 8000540:	6313      	str	r3, [r2, #48]	@ 0x30
		else if (pGPIOx == GPIOK)
		{
			GPIOK_PCLK_DI();
		}
	}
}
 8000542:	e0e5      	b.n	8000710 <GPIO_PeriClockControl+0x1f4>
		else if (pGPIOx == GPIOB)
 8000544:	687b      	ldr	r3, [r7, #4]
 8000546:	4a77      	ldr	r2, [pc, #476]	@ (8000724 <GPIO_PeriClockControl+0x208>)
 8000548:	4293      	cmp	r3, r2
 800054a:	d106      	bne.n	800055a <GPIO_PeriClockControl+0x3e>
			GPIOB_PCLK_EN();
 800054c:	4b74      	ldr	r3, [pc, #464]	@ (8000720 <GPIO_PeriClockControl+0x204>)
 800054e:	6b1b      	ldr	r3, [r3, #48]	@ 0x30
 8000550:	4a73      	ldr	r2, [pc, #460]	@ (8000720 <GPIO_PeriClockControl+0x204>)
 8000552:	f043 0302 	orr.w	r3, r3, #2
 8000556:	6313      	str	r3, [r2, #48]	@ 0x30
}
 8000558:	e0da      	b.n	8000710 <GPIO_PeriClockControl+0x1f4>
		else if (pGPIOx == GPIOC)
 800055a:	687b      	ldr	r3, [r7, #4]
 800055c:	4a72      	ldr	r2, [pc, #456]	@ (8000728 <GPIO_PeriClockControl+0x20c>)
 800055e:	4293      	cmp	r3, r2
 8000560:	d106      	bne.n	8000570 <GPIO_PeriClockControl+0x54>
			GPIOC_PCLK_EN();
 8000562:	4b6f      	ldr	r3, [pc, #444]	@ (8000720 <GPIO_PeriClockControl+0x204>)
 8000564:	6b1b      	ldr	r3, [r3, #48]	@ 0x30
 8000566:	4a6e      	ldr	r2, [pc, #440]	@ (8000720 <GPIO_PeriClockControl+0x204>)
 8000568:	f043 0304 	orr.w	r3, r3, #4
 800056c:	6313      	str	r3, [r2, #48]	@ 0x30
}
 800056e:	e0cf      	b.n	8000710 <GPIO_PeriClockControl+0x1f4>
		else if (pGPIOx == GPIOD)
 8000570:	687b      	ldr	r3, [r7, #4]
 8000572:	4a6e      	ldr	r2, [pc, #440]	@ (800072c <GPIO_PeriClockControl+0x210>)
 8000574:	4293      	cmp	r3, r2
 8000576:	d106      	bne.n	8000586 <GPIO_PeriClockControl+0x6a>
			GPIOD_PCLK_EN();
 8000578:	4b69      	ldr	r3, [pc, #420]	@ (8000720 <GPIO_PeriClockControl+0x204>)
 800057a:	6b1b      	ldr	r3, [r3, #48]	@ 0x30
 800057c:	4a68      	ldr	r2, [pc, #416]	@ (8000720 <GPIO_PeriClockControl+0x204>)
 800057e:	f043 0308 	orr.w	r3, r3, #8
 8000582:	6313      	str	r3, [r2, #48]	@ 0x30
}
 8000584:	e0c4      	b.n	8000710 <GPIO_PeriClockControl+0x1f4>
		else if (pGPIOx == GPIOE)
 8000586:	687b      	ldr	r3, [r7, #4]
 8000588:	4a69      	ldr	r2, [pc, #420]	@ (8000730 <GPIO_PeriClockControl+0x214>)
 800058a:	4293      	cmp	r3, r2
 800058c:	d106      	bne.n	800059c <GPIO_PeriClockControl+0x80>
			GPIOE_PCLK_EN();
 800058e:	4b64      	ldr	r3, [pc, #400]	@ (8000720 <GPIO_PeriClockControl+0x204>)
 8000590:	6b1b      	ldr	r3, [r3, #48]	@ 0x30
 8000592:	4a63      	ldr	r2, [pc, #396]	@ (8000720 <GPIO_PeriClockControl+0x204>)
 8000594:	f043 0310 	orr.w	r3, r3, #16
 8000598:	6313      	str	r3, [r2, #48]	@ 0x30
}
 800059a:	e0b9      	b.n	8000710 <GPIO_PeriClockControl+0x1f4>
		else if (pGPIOx == GPIOF)
 800059c:	687b      	ldr	r3, [r7, #4]
 800059e:	4a65      	ldr	r2, [pc, #404]	@ (8000734 <GPIO_PeriClockControl+0x218>)
 80005a0:	4293      	cmp	r3, r2
 80005a2:	d106      	bne.n	80005b2 <GPIO_PeriClockControl+0x96>
			GPIOF_PCLK_EN();
 80005a4:	4b5e      	ldr	r3, [pc, #376]	@ (8000720 <GPIO_PeriClockControl+0x204>)
 80005a6:	6b1b      	ldr	r3, [r3, #48]	@ 0x30
 80005a8:	4a5d      	ldr	r2, [pc, #372]	@ (8000720 <GPIO_PeriClockControl+0x204>)
 80005aa:	f043 0320 	orr.w	r3, r3, #32
 80005ae:	6313      	str	r3, [r2, #48]	@ 0x30
}
 80005b0:	e0ae      	b.n	8000710 <GPIO_PeriClockControl+0x1f4>
		else if (pGPIOx == GPIOG)
 80005b2:	687b      	ldr	r3, [r7, #4]
 80005b4:	4a60      	ldr	r2, [pc, #384]	@ (8000738 <GPIO_PeriClockControl+0x21c>)
 80005b6:	4293      	cmp	r3, r2
 80005b8:	d106      	bne.n	80005c8 <GPIO_PeriClockControl+0xac>
			GPIOG_PCLK_EN();
 80005ba:	4b59      	ldr	r3, [pc, #356]	@ (8000720 <GPIO_PeriClockControl+0x204>)
 80005bc:	6b1b      	ldr	r3, [r3, #48]	@ 0x30
 80005be:	4a58      	ldr	r2, [pc, #352]	@ (8000720 <GPIO_PeriClockControl+0x204>)
 80005c0:	f043 0340 	orr.w	r3, r3, #64	@ 0x40
 80005c4:	6313      	str	r3, [r2, #48]	@ 0x30
}
 80005c6:	e0a3      	b.n	8000710 <GPIO_PeriClockControl+0x1f4>
		else if (pGPIOx == GPIOH)
 80005c8:	687b      	ldr	r3, [r7, #4]
 80005ca:	4a5c      	ldr	r2, [pc, #368]	@ (800073c <GPIO_PeriClockControl+0x220>)
 80005cc:	4293      	cmp	r3, r2
 80005ce:	d106      	bne.n	80005de <GPIO_PeriClockControl+0xc2>
			GPIOH_PCLK_EN();
 80005d0:	4b53      	ldr	r3, [pc, #332]	@ (8000720 <GPIO_PeriClockControl+0x204>)
 80005d2:	6b1b      	ldr	r3, [r3, #48]	@ 0x30
 80005d4:	4a52      	ldr	r2, [pc, #328]	@ (8000720 <GPIO_PeriClockControl+0x204>)
 80005d6:	f043 0380 	orr.w	r3, r3, #128	@ 0x80
 80005da:	6313      	str	r3, [r2, #48]	@ 0x30
}
 80005dc:	e098      	b.n	8000710 <GPIO_PeriClockControl+0x1f4>
		else if (pGPIOx == GPIOI)
 80005de:	687b      	ldr	r3, [r7, #4]
 80005e0:	4a57      	ldr	r2, [pc, #348]	@ (8000740 <GPIO_PeriClockControl+0x224>)
 80005e2:	4293      	cmp	r3, r2
 80005e4:	d106      	bne.n	80005f4 <GPIO_PeriClockControl+0xd8>
			GPIOI_PCLK_EN();
 80005e6:	4b4e      	ldr	r3, [pc, #312]	@ (8000720 <GPIO_PeriClockControl+0x204>)
 80005e8:	6b1b      	ldr	r3, [r3, #48]	@ 0x30
 80005ea:	4a4d      	ldr	r2, [pc, #308]	@ (8000720 <GPIO_PeriClockControl+0x204>)
 80005ec:	f443 7380 	orr.w	r3, r3, #256	@ 0x100
 80005f0:	6313      	str	r3, [r2, #48]	@ 0x30
}
 80005f2:	e08d      	b.n	8000710 <GPIO_PeriClockControl+0x1f4>
		else if (pGPIOx == GPIOJ)
 80005f4:	687b      	ldr	r3, [r7, #4]
 80005f6:	4a53      	ldr	r2, [pc, #332]	@ (8000744 <GPIO_PeriClockControl+0x228>)
 80005f8:	4293      	cmp	r3, r2
 80005fa:	d106      	bne.n	800060a <GPIO_PeriClockControl+0xee>
			GPIOJ_PCLK_EN();
 80005fc:	4b48      	ldr	r3, [pc, #288]	@ (8000720 <GPIO_PeriClockControl+0x204>)
 80005fe:	6b1b      	ldr	r3, [r3, #48]	@ 0x30
 8000600:	4a47      	ldr	r2, [pc, #284]	@ (8000720 <GPIO_PeriClockControl+0x204>)
 8000602:	f443 7300 	orr.w	r3, r3, #512	@ 0x200
 8000606:	6313      	str	r3, [r2, #48]	@ 0x30
}
 8000608:	e082      	b.n	8000710 <GPIO_PeriClockControl+0x1f4>
		else if (pGPIOx == GPIOK)
 800060a:	687b      	ldr	r3, [r7, #4]
 800060c:	4a4e      	ldr	r2, [pc, #312]	@ (8000748 <GPIO_PeriClockControl+0x22c>)
 800060e:	4293      	cmp	r3, r2
 8000610:	d17e      	bne.n	8000710 <GPIO_PeriClockControl+0x1f4>
			GPIOK_PCLK_EN();
 8000612:	4b43      	ldr	r3, [pc, #268]	@ (8000720 <GPIO_PeriClockControl+0x204>)
 8000614:	6b1b      	ldr	r3, [r3, #48]	@ 0x30
 8000616:	4a42      	ldr	r2, [pc, #264]	@ (8000720 <GPIO_PeriClockControl+0x204>)
 8000618:	f443 6380 	orr.w	r3, r3, #1024	@ 0x400
 800061c:	6313      	str	r3, [r2, #48]	@ 0x30
}
 800061e:	e077      	b.n	8000710 <GPIO_PeriClockControl+0x1f4>
		if (pGPIOx == GPIOA)
 8000620:	687b      	ldr	r3, [r7, #4]
 8000622:	4a3e      	ldr	r2, [pc, #248]	@ (800071c <GPIO_PeriClockControl+0x200>)
 8000624:	4293      	cmp	r3, r2
 8000626:	d106      	bne.n	8000636 <GPIO_PeriClockControl+0x11a>
			GPIOA_PCLK_DI();
 8000628:	4b3d      	ldr	r3, [pc, #244]	@ (8000720 <GPIO_PeriClockControl+0x204>)
 800062a:	6b1b      	ldr	r3, [r3, #48]	@ 0x30
 800062c:	4a3c      	ldr	r2, [pc, #240]	@ (8000720 <GPIO_PeriClockControl+0x204>)
 800062e:	f023 0301 	bic.w	r3, r3, #1
 8000632:	6313      	str	r3, [r2, #48]	@ 0x30
}
 8000634:	e06c      	b.n	8000710 <GPIO_PeriClockControl+0x1f4>
		else if (pGPIOx == GPIOB)
 8000636:	687b      	ldr	r3, [r7, #4]
 8000638:	4a3a      	ldr	r2, [pc, #232]	@ (8000724 <GPIO_PeriClockControl+0x208>)
 800063a:	4293      	cmp	r3, r2
 800063c:	d106      	bne.n	800064c <GPIO_PeriClockControl+0x130>
			GPIOB_PCLK_DI();
 800063e:	4b38      	ldr	r3, [pc, #224]	@ (8000720 <GPIO_PeriClockControl+0x204>)
 8000640:	6b1b      	ldr	r3, [r3, #48]	@ 0x30
 8000642:	4a37      	ldr	r2, [pc, #220]	@ (8000720 <GPIO_PeriClockControl+0x204>)
 8000644:	f023 0302 	bic.w	r3, r3, #2
 8000648:	6313      	str	r3, [r2, #48]	@ 0x30
}
 800064a:	e061      	b.n	8000710 <GPIO_PeriClockControl+0x1f4>
		else if (pGPIOx == GPIOC)
 800064c:	687b      	ldr	r3, [r7, #4]
 800064e:	4a36      	ldr	r2, [pc, #216]	@ (8000728 <GPIO_PeriClockControl+0x20c>)
 8000650:	4293      	cmp	r3, r2
 8000652:	d106      	bne.n	8000662 <GPIO_PeriClockControl+0x146>
			GPIOC_PCLK_DI();
 8000654:	4b32      	ldr	r3, [pc, #200]	@ (8000720 <GPIO_PeriClockControl+0x204>)
 8000656:	6b1b      	ldr	r3, [r3, #48]	@ 0x30
 8000658:	4a31      	ldr	r2, [pc, #196]	@ (8000720 <GPIO_PeriClockControl+0x204>)
 800065a:	f023 0304 	bic.w	r3, r3, #4
 800065e:	6313      	str	r3, [r2, #48]	@ 0x30
}
 8000660:	e056      	b.n	8000710 <GPIO_PeriClockControl+0x1f4>
		else if (pGPIOx == GPIOD)
 8000662:	687b      	ldr	r3, [r7, #4]
 8000664:	4a31      	ldr	r2, [pc, #196]	@ (800072c <GPIO_PeriClockControl+0x210>)
 8000666:	4293      	cmp	r3, r2
 8000668:	d106      	bne.n	8000678 <GPIO_PeriClockControl+0x15c>
			GPIOD_PCLK_DI();
 800066a:	4b2d      	ldr	r3, [pc, #180]	@ (8000720 <GPIO_PeriClockControl+0x204>)
 800066c:	6b1b      	ldr	r3, [r3, #48]	@ 0x30
 800066e:	4a2c      	ldr	r2, [pc, #176]	@ (8000720 <GPIO_PeriClockControl+0x204>)
 8000670:	f023 0308 	bic.w	r3, r3, #8
 8000674:	6313      	str	r3, [r2, #48]	@ 0x30
}
 8000676:	e04b      	b.n	8000710 <GPIO_PeriClockControl+0x1f4>
		else if (pGPIOx == GPIOE)
 8000678:	687b      	ldr	r3, [r7, #4]
 800067a:	4a2d      	ldr	r2, [pc, #180]	@ (8000730 <GPIO_PeriClockControl+0x214>)
 800067c:	4293      	cmp	r3, r2
 800067e:	d106      	bne.n	800068e <GPIO_PeriClockControl+0x172>
			GPIOE_PCLK_DI();
 8000680:	4b27      	ldr	r3, [pc, #156]	@ (8000720 <GPIO_PeriClockControl+0x204>)
 8000682:	6b1b      	ldr	r3, [r3, #48]	@ 0x30
 8000684:	4a26      	ldr	r2, [pc, #152]	@ (8000720 <GPIO_PeriClockControl+0x204>)
 8000686:	f023 0310 	bic.w	r3, r3, #16
 800068a:	6313      	str	r3, [r2, #48]	@ 0x30
}
 800068c:	e040      	b.n	8000710 <GPIO_PeriClockControl+0x1f4>
		else if (pGPIOx == GPIOF)
 800068e:	687b      	ldr	r3, [r7, #4]
 8000690:	4a28      	ldr	r2, [pc, #160]	@ (8000734 <GPIO_PeriClockControl+0x218>)
 8000692:	4293      	cmp	r3, r2
 8000694:	d106      	bne.n	80006a4 <GPIO_PeriClockControl+0x188>
			GPIOF_PCLK_DI();
 8000696:	4b22      	ldr	r3, [pc, #136]	@ (8000720 <GPIO_PeriClockControl+0x204>)
 8000698:	6b1b      	ldr	r3, [r3, #48]	@ 0x30
 800069a:	4a21      	ldr	r2, [pc, #132]	@ (8000720 <GPIO_PeriClockControl+0x204>)
 800069c:	f023 0320 	bic.w	r3, r3, #32
 80006a0:	6313      	str	r3, [r2, #48]	@ 0x30
}
 80006a2:	e035      	b.n	8000710 <GPIO_PeriClockControl+0x1f4>
		else if (pGPIOx == GPIOG)
 80006a4:	687b      	ldr	r3, [r7, #4]
 80006a6:	4a24      	ldr	r2, [pc, #144]	@ (8000738 <GPIO_PeriClockControl+0x21c>)
 80006a8:	4293      	cmp	r3, r2
 80006aa:	d106      	bne.n	80006ba <GPIO_PeriClockControl+0x19e>
			GPIOG_PCLK_DI();
 80006ac:	4b1c      	ldr	r3, [pc, #112]	@ (8000720 <GPIO_PeriClockControl+0x204>)
 80006ae:	6b1b      	ldr	r3, [r3, #48]	@ 0x30
 80006b0:	4a1b      	ldr	r2, [pc, #108]	@ (8000720 <GPIO_PeriClockControl+0x204>)
 80006b2:	f023 0340 	bic.w	r3, r3, #64	@ 0x40
 80006b6:	6313      	str	r3, [r2, #48]	@ 0x30
}
 80006b8:	e02a      	b.n	8000710 <GPIO_PeriClockControl+0x1f4>
		else if (pGPIOx == GPIOH)
 80006ba:	687b      	ldr	r3, [r7, #4]
 80006bc:	4a1f      	ldr	r2, [pc, #124]	@ (800073c <GPIO_PeriClockControl+0x220>)
 80006be:	4293      	cmp	r3, r2
 80006c0:	d106      	bne.n	80006d0 <GPIO_PeriClockControl+0x1b4>
			GPIOH_PCLK_DI();
 80006c2:	4b17      	ldr	r3, [pc, #92]	@ (8000720 <GPIO_PeriClockControl+0x204>)
 80006c4:	6b1b      	ldr	r3, [r3, #48]	@ 0x30
 80006c6:	4a16      	ldr	r2, [pc, #88]	@ (8000720 <GPIO_PeriClockControl+0x204>)
 80006c8:	f023 0380 	bic.w	r3, r3, #128	@ 0x80
 80006cc:	6313      	str	r3, [r2, #48]	@ 0x30
}
 80006ce:	e01f      	b.n	8000710 <GPIO_PeriClockControl+0x1f4>
		else if (pGPIOx == GPIOI)
 80006d0:	687b      	ldr	r3, [r7, #4]
 80006d2:	4a1b      	ldr	r2, [pc, #108]	@ (8000740 <GPIO_PeriClockControl+0x224>)
 80006d4:	4293      	cmp	r3, r2
 80006d6:	d106      	bne.n	80006e6 <GPIO_PeriClockControl+0x1ca>
			GPIOI_PCLK_DI();
 80006d8:	4b11      	ldr	r3, [pc, #68]	@ (8000720 <GPIO_PeriClockControl+0x204>)
 80006da:	6b1b      	ldr	r3, [r3, #48]	@ 0x30
 80006dc:	4a10      	ldr	r2, [pc, #64]	@ (8000720 <GPIO_PeriClockControl+0x204>)
 80006de:	f423 7380 	bic.w	r3, r3, #256	@ 0x100
 80006e2:	6313      	str	r3, [r2, #48]	@ 0x30
}
 80006e4:	e014      	b.n	8000710 <GPIO_PeriClockControl+0x1f4>
		else if (pGPIOx == GPIOJ)
 80006e6:	687b      	ldr	r3, [r7, #4]
 80006e8:	4a16      	ldr	r2, [pc, #88]	@ (8000744 <GPIO_PeriClockControl+0x228>)
 80006ea:	4293      	cmp	r3, r2
 80006ec:	d106      	bne.n	80006fc <GPIO_PeriClockControl+0x1e0>
			GPIOJ_PCLK_DI();
 80006ee:	4b0c      	ldr	r3, [pc, #48]	@ (8000720 <GPIO_PeriClockControl+0x204>)
 80006f0:	6b1b      	ldr	r3, [r3, #48]	@ 0x30
 80006f2:	4a0b      	ldr	r2, [pc, #44]	@ (8000720 <GPIO_PeriClockControl+0x204>)
 80006f4:	f423 7300 	bic.w	r3, r3, #512	@ 0x200
 80006f8:	6313      	str	r3, [r2, #48]	@ 0x30
}
 80006fa:	e009      	b.n	8000710 <GPIO_PeriClockControl+0x1f4>
		else if (pGPIOx == GPIOK)
 80006fc:	687b      	ldr	r3, [r7, #4]
 80006fe:	4a12      	ldr	r2, [pc, #72]	@ (8000748 <GPIO_PeriClockControl+0x22c>)
 8000700:	4293      	cmp	r3, r2
 8000702:	d105      	bne.n	8000710 <GPIO_PeriClockControl+0x1f4>
			GPIOK_PCLK_DI();
 8000704:	4b06      	ldr	r3, [pc, #24]	@ (8000720 <GPIO_PeriClockControl+0x204>)
 8000706:	6b1b      	ldr	r3, [r3, #48]	@ 0x30
 8000708:	4a05      	ldr	r2, [pc, #20]	@ (8000720 <GPIO_PeriClockControl+0x204>)
 800070a:	f423 6380 	bic.w	r3, r3, #1024	@ 0x400
 800070e:	6313      	str	r3, [r2, #48]	@ 0x30
}
 8000710:	bf00      	nop
 8000712:	370c      	adds	r7, #12
 8000714:	46bd      	mov	sp, r7
 8000716:	f85d 7b04 	ldr.w	r7, [sp], #4
 800071a:	4770      	bx	lr
 800071c:	40020000 	.word	0x40020000
 8000720:	40023800 	.word	0x40023800
 8000724:	40020400 	.word	0x40020400
 8000728:	40020800 	.word	0x40020800
 800072c:	40020c00 	.word	0x40020c00
 8000730:	40021000 	.word	0x40021000
 8000734:	40021400 	.word	0x40021400
 8000738:	40021800 	.word	0x40021800
 800073c:	40021c00 	.word	0x40021c00
 8000740:	40022000 	.word	0x40022000
 8000744:	40022400 	.word	0x40022400
 8000748:	40022800 	.word	0x40022800

0800074c <GPIO_Init>:

/*
 * GPIO Init
 */
void GPIO_Init(GPIO_Handle_t *pGPIOHandle)
{
 800074c:	b580      	push	{r7, lr}
 800074e:	b086      	sub	sp, #24
 8000750:	af00      	add	r7, sp, #0
 8000752:	6078      	str	r0, [r7, #4]
	uint32_t temp = 0;
 8000754:	2300      	movs	r3, #0
 8000756:	617b      	str	r3, [r7, #20]
	/*
	 * 1. Enable peripheral clock
	 */
	GPIO_PeriClockControl(pGPIOHandle->pGPIOx, ENABLE);
 8000758:	687b      	ldr	r3, [r7, #4]
 800075a:	681b      	ldr	r3, [r3, #0]
 800075c:	2101      	movs	r1, #1
 800075e:	4618      	mov	r0, r3
 8000760:	f7ff fedc 	bl	800051c <GPIO_PeriClockControl>

	/*
	 * 2. Configure GPIO mode
	 * MODER register: 2 bits for each pin
	 */
	if(pGPIOHandle->GPIO_PinConfig.GPIO_PinMode <= GPIO_MODE_ANALOG)
 8000764:	687b      	ldr	r3, [r7, #4]
 8000766:	795b      	ldrb	r3, [r3, #5]
 8000768:	2b03      	cmp	r3, #3
 800076a:	d81f      	bhi.n	80007ac <GPIO_Init+0x60>
	{
		temp = ((uint32_t)pGPIOHandle->GPIO_PinConfig.GPIO_PinMode << (2U * pGPIOHandle->GPIO_PinConfig.GPIO_PinNumber));
 800076c:	687b      	ldr	r3, [r7, #4]
 800076e:	795b      	ldrb	r3, [r3, #5]
 8000770:	461a      	mov	r2, r3
 8000772:	687b      	ldr	r3, [r7, #4]
 8000774:	791b      	ldrb	r3, [r3, #4]
 8000776:	005b      	lsls	r3, r3, #1
 8000778:	fa02 f303 	lsl.w	r3, r2, r3
 800077c:	617b      	str	r3, [r7, #20]
		pGPIOHandle->pGPIOx->GPIO_MODER &= ~(0x3U << (2U * pGPIOHandle->GPIO_PinConfig.GPIO_PinNumber));
 800077e:	687b      	ldr	r3, [r7, #4]
 8000780:	681b      	ldr	r3, [r3, #0]
 8000782:	6819      	ldr	r1, [r3, #0]
 8000784:	687b      	ldr	r3, [r7, #4]
 8000786:	791b      	ldrb	r3, [r3, #4]
 8000788:	005b      	lsls	r3, r3, #1
 800078a:	2203      	movs	r2, #3
 800078c:	fa02 f303 	lsl.w	r3, r2, r3
 8000790:	43da      	mvns	r2, r3
 8000792:	687b      	ldr	r3, [r7, #4]
 8000794:	681b      	ldr	r3, [r3, #0]
 8000796:	400a      	ands	r2, r1
 8000798:	601a      	str	r2, [r3, #0]
		pGPIOHandle->pGPIOx->GPIO_MODER |= temp;
 800079a:	687b      	ldr	r3, [r7, #4]
 800079c:	681b      	ldr	r3, [r3, #0]
 800079e:	6819      	ldr	r1, [r3, #0]
 80007a0:	687b      	ldr	r3, [r7, #4]
 80007a2:	681b      	ldr	r3, [r3, #0]
 80007a4:	697a      	ldr	r2, [r7, #20]
 80007a6:	430a      	orrs	r2, r1
 80007a8:	601a      	str	r2, [r3, #0]
 80007aa:	e0f7      	b.n	800099c <GPIO_Init+0x250>
		 */

		/*
		 *  1. Confiure rising/falling edge trigger
		 */
		if(pGPIOHandle->GPIO_PinConfig.GPIO_PinMode == GPIO_MODE_IT_FT)
 80007ac:	687b      	ldr	r3, [r7, #4]
 80007ae:	795b      	ldrb	r3, [r3, #5]
 80007b0:	2b04      	cmp	r3, #4
 80007b2:	d117      	bne.n	80007e4 <GPIO_Init+0x98>
		{
			EXTI->EXTI_FTSR |= (1 << pGPIOHandle->GPIO_PinConfig.GPIO_PinNumber);
 80007b4:	4b50      	ldr	r3, [pc, #320]	@ (80008f8 <GPIO_Init+0x1ac>)
 80007b6:	68db      	ldr	r3, [r3, #12]
 80007b8:	687a      	ldr	r2, [r7, #4]
 80007ba:	7912      	ldrb	r2, [r2, #4]
 80007bc:	4611      	mov	r1, r2
 80007be:	2201      	movs	r2, #1
 80007c0:	408a      	lsls	r2, r1
 80007c2:	4611      	mov	r1, r2
 80007c4:	4a4c      	ldr	r2, [pc, #304]	@ (80008f8 <GPIO_Init+0x1ac>)
 80007c6:	430b      	orrs	r3, r1
 80007c8:	60d3      	str	r3, [r2, #12]
			EXTI->EXTI_RTSR &= ~(1 << pGPIOHandle->GPIO_PinConfig.GPIO_PinNumber);
 80007ca:	4b4b      	ldr	r3, [pc, #300]	@ (80008f8 <GPIO_Init+0x1ac>)
 80007cc:	689b      	ldr	r3, [r3, #8]
 80007ce:	687a      	ldr	r2, [r7, #4]
 80007d0:	7912      	ldrb	r2, [r2, #4]
 80007d2:	4611      	mov	r1, r2
 80007d4:	2201      	movs	r2, #1
 80007d6:	408a      	lsls	r2, r1
 80007d8:	43d2      	mvns	r2, r2
 80007da:	4611      	mov	r1, r2
 80007dc:	4a46      	ldr	r2, [pc, #280]	@ (80008f8 <GPIO_Init+0x1ac>)
 80007de:	400b      	ands	r3, r1
 80007e0:	6093      	str	r3, [r2, #8]
 80007e2:	e033      	b.n	800084c <GPIO_Init+0x100>
		}else if(pGPIOHandle->GPIO_PinConfig.GPIO_PinMode == GPIO_MODE_IT_RT)
 80007e4:	687b      	ldr	r3, [r7, #4]
 80007e6:	795b      	ldrb	r3, [r3, #5]
 80007e8:	2b05      	cmp	r3, #5
 80007ea:	d117      	bne.n	800081c <GPIO_Init+0xd0>
		{
			EXTI->EXTI_RTSR |= (1 << pGPIOHandle->GPIO_PinConfig.GPIO_PinNumber);
 80007ec:	4b42      	ldr	r3, [pc, #264]	@ (80008f8 <GPIO_Init+0x1ac>)
 80007ee:	689b      	ldr	r3, [r3, #8]
 80007f0:	687a      	ldr	r2, [r7, #4]
 80007f2:	7912      	ldrb	r2, [r2, #4]
 80007f4:	4611      	mov	r1, r2
 80007f6:	2201      	movs	r2, #1
 80007f8:	408a      	lsls	r2, r1
 80007fa:	4611      	mov	r1, r2
 80007fc:	4a3e      	ldr	r2, [pc, #248]	@ (80008f8 <GPIO_Init+0x1ac>)
 80007fe:	430b      	orrs	r3, r1
 8000800:	6093      	str	r3, [r2, #8]
			EXTI->EXTI_FTSR &= ~(1 << pGPIOHandle->GPIO_PinConfig.GPIO_PinNumber);
 8000802:	4b3d      	ldr	r3, [pc, #244]	@ (80008f8 <GPIO_Init+0x1ac>)
 8000804:	68db      	ldr	r3, [r3, #12]
 8000806:	687a      	ldr	r2, [r7, #4]
 8000808:	7912      	ldrb	r2, [r2, #4]
 800080a:	4611      	mov	r1, r2
 800080c:	2201      	movs	r2, #1
 800080e:	408a      	lsls	r2, r1
 8000810:	43d2      	mvns	r2, r2
 8000812:	4611      	mov	r1, r2
 8000814:	4a38      	ldr	r2, [pc, #224]	@ (80008f8 <GPIO_Init+0x1ac>)
 8000816:	400b      	ands	r3, r1
 8000818:	60d3      	str	r3, [r2, #12]
 800081a:	e017      	b.n	800084c <GPIO_Init+0x100>
		}else if(pGPIOHandle->GPIO_PinConfig.GPIO_PinMode == GPIO_MODE_IT_RFT)
 800081c:	687b      	ldr	r3, [r7, #4]
 800081e:	795b      	ldrb	r3, [r3, #5]
 8000820:	2b06      	cmp	r3, #6
 8000822:	d113      	bne.n	800084c <GPIO_Init+0x100>
		{
			EXTI->EXTI_RTSR |= (1U << pGPIOHandle->GPIO_PinConfig.GPIO_PinNumber);
 8000824:	4b34      	ldr	r3, [pc, #208]	@ (80008f8 <GPIO_Init+0x1ac>)
 8000826:	689a      	ldr	r2, [r3, #8]
 8000828:	687b      	ldr	r3, [r7, #4]
 800082a:	791b      	ldrb	r3, [r3, #4]
 800082c:	4619      	mov	r1, r3
 800082e:	2301      	movs	r3, #1
 8000830:	408b      	lsls	r3, r1
 8000832:	4931      	ldr	r1, [pc, #196]	@ (80008f8 <GPIO_Init+0x1ac>)
 8000834:	4313      	orrs	r3, r2
 8000836:	608b      	str	r3, [r1, #8]
			EXTI->EXTI_FTSR |= (1U << pGPIOHandle->GPIO_PinConfig.GPIO_PinNumber);
 8000838:	4b2f      	ldr	r3, [pc, #188]	@ (80008f8 <GPIO_Init+0x1ac>)
 800083a:	68da      	ldr	r2, [r3, #12]
 800083c:	687b      	ldr	r3, [r7, #4]
 800083e:	791b      	ldrb	r3, [r3, #4]
 8000840:	4619      	mov	r1, r3
 8000842:	2301      	movs	r3, #1
 8000844:	408b      	lsls	r3, r1
 8000846:	492c      	ldr	r1, [pc, #176]	@ (80008f8 <GPIO_Init+0x1ac>)
 8000848:	4313      	orrs	r3, r2
 800084a:	60cb      	str	r3, [r1, #12]
		}

		/*
		 * 2. Configure the GPIO port seelction in SYSCFG_EXTICR
		 */
		uint8_t exticr_index = pGPIOHandle->GPIO_PinConfig.GPIO_PinNumber / 4U;
 800084c:	687b      	ldr	r3, [r7, #4]
 800084e:	791b      	ldrb	r3, [r3, #4]
 8000850:	089b      	lsrs	r3, r3, #2
 8000852:	74fb      	strb	r3, [r7, #19]
		uint8_t exticr_position = pGPIOHandle->GPIO_PinConfig.GPIO_PinNumber % 4U;
 8000854:	687b      	ldr	r3, [r7, #4]
 8000856:	791b      	ldrb	r3, [r3, #4]
 8000858:	f003 0303 	and.w	r3, r3, #3
 800085c:	74bb      	strb	r3, [r7, #18]

		uint8_t port_code = GPIO_BASEADDR_TO_CODE(pGPIOHandle->pGPIOx);
 800085e:	687b      	ldr	r3, [r7, #4]
 8000860:	681b      	ldr	r3, [r3, #0]
 8000862:	4a26      	ldr	r2, [pc, #152]	@ (80008fc <GPIO_Init+0x1b0>)
 8000864:	4293      	cmp	r3, r2
 8000866:	d05f      	beq.n	8000928 <GPIO_Init+0x1dc>
 8000868:	687b      	ldr	r3, [r7, #4]
 800086a:	681b      	ldr	r3, [r3, #0]
 800086c:	4a24      	ldr	r2, [pc, #144]	@ (8000900 <GPIO_Init+0x1b4>)
 800086e:	4293      	cmp	r3, r2
 8000870:	d040      	beq.n	80008f4 <GPIO_Init+0x1a8>
 8000872:	687b      	ldr	r3, [r7, #4]
 8000874:	681b      	ldr	r3, [r3, #0]
 8000876:	4a23      	ldr	r2, [pc, #140]	@ (8000904 <GPIO_Init+0x1b8>)
 8000878:	4293      	cmp	r3, r2
 800087a:	d039      	beq.n	80008f0 <GPIO_Init+0x1a4>
 800087c:	687b      	ldr	r3, [r7, #4]
 800087e:	681b      	ldr	r3, [r3, #0]
 8000880:	4a21      	ldr	r2, [pc, #132]	@ (8000908 <GPIO_Init+0x1bc>)
 8000882:	4293      	cmp	r3, r2
 8000884:	d032      	beq.n	80008ec <GPIO_Init+0x1a0>
 8000886:	687b      	ldr	r3, [r7, #4]
 8000888:	681b      	ldr	r3, [r3, #0]
 800088a:	4a20      	ldr	r2, [pc, #128]	@ (800090c <GPIO_Init+0x1c0>)
 800088c:	4293      	cmp	r3, r2
 800088e:	d02b      	beq.n	80008e8 <GPIO_Init+0x19c>
 8000890:	687b      	ldr	r3, [r7, #4]
 8000892:	681b      	ldr	r3, [r3, #0]
 8000894:	4a1e      	ldr	r2, [pc, #120]	@ (8000910 <GPIO_Init+0x1c4>)
 8000896:	4293      	cmp	r3, r2
 8000898:	d024      	beq.n	80008e4 <GPIO_Init+0x198>
 800089a:	687b      	ldr	r3, [r7, #4]
 800089c:	681b      	ldr	r3, [r3, #0]
 800089e:	4a1d      	ldr	r2, [pc, #116]	@ (8000914 <GPIO_Init+0x1c8>)
 80008a0:	4293      	cmp	r3, r2
 80008a2:	d01d      	beq.n	80008e0 <GPIO_Init+0x194>
 80008a4:	687b      	ldr	r3, [r7, #4]
 80008a6:	681b      	ldr	r3, [r3, #0]
 80008a8:	4a1b      	ldr	r2, [pc, #108]	@ (8000918 <GPIO_Init+0x1cc>)
 80008aa:	4293      	cmp	r3, r2
 80008ac:	d016      	beq.n	80008dc <GPIO_Init+0x190>
 80008ae:	687b      	ldr	r3, [r7, #4]
 80008b0:	681b      	ldr	r3, [r3, #0]
 80008b2:	4a1a      	ldr	r2, [pc, #104]	@ (800091c <GPIO_Init+0x1d0>)
 80008b4:	4293      	cmp	r3, r2
 80008b6:	d00f      	beq.n	80008d8 <GPIO_Init+0x18c>
 80008b8:	687b      	ldr	r3, [r7, #4]
 80008ba:	681b      	ldr	r3, [r3, #0]
 80008bc:	4a18      	ldr	r2, [pc, #96]	@ (8000920 <GPIO_Init+0x1d4>)
 80008be:	4293      	cmp	r3, r2
 80008c0:	d008      	beq.n	80008d4 <GPIO_Init+0x188>
 80008c2:	687b      	ldr	r3, [r7, #4]
 80008c4:	681b      	ldr	r3, [r3, #0]
 80008c6:	4a17      	ldr	r2, [pc, #92]	@ (8000924 <GPIO_Init+0x1d8>)
 80008c8:	4293      	cmp	r3, r2
 80008ca:	d101      	bne.n	80008d0 <GPIO_Init+0x184>
 80008cc:	230a      	movs	r3, #10
 80008ce:	e02c      	b.n	800092a <GPIO_Init+0x1de>
 80008d0:	2300      	movs	r3, #0
 80008d2:	e02a      	b.n	800092a <GPIO_Init+0x1de>
 80008d4:	2309      	movs	r3, #9
 80008d6:	e028      	b.n	800092a <GPIO_Init+0x1de>
 80008d8:	2308      	movs	r3, #8
 80008da:	e026      	b.n	800092a <GPIO_Init+0x1de>
 80008dc:	2307      	movs	r3, #7
 80008de:	e024      	b.n	800092a <GPIO_Init+0x1de>
 80008e0:	2306      	movs	r3, #6
 80008e2:	e022      	b.n	800092a <GPIO_Init+0x1de>
 80008e4:	2305      	movs	r3, #5
 80008e6:	e020      	b.n	800092a <GPIO_Init+0x1de>
 80008e8:	2304      	movs	r3, #4
 80008ea:	e01e      	b.n	800092a <GPIO_Init+0x1de>
 80008ec:	2303      	movs	r3, #3
 80008ee:	e01c      	b.n	800092a <GPIO_Init+0x1de>
 80008f0:	2302      	movs	r3, #2
 80008f2:	e01a      	b.n	800092a <GPIO_Init+0x1de>
 80008f4:	2301      	movs	r3, #1
 80008f6:	e018      	b.n	800092a <GPIO_Init+0x1de>
 80008f8:	40013c00 	.word	0x40013c00
 80008fc:	40020000 	.word	0x40020000
 8000900:	40020400 	.word	0x40020400
 8000904:	40020800 	.word	0x40020800
 8000908:	40020c00 	.word	0x40020c00
 800090c:	40021000 	.word	0x40021000
 8000910:	40021400 	.word	0x40021400
 8000914:	40021800 	.word	0x40021800
 8000918:	40021c00 	.word	0x40021c00
 800091c:	40022000 	.word	0x40022000
 8000920:	40022400 	.word	0x40022400
 8000924:	40022800 	.word	0x40022800
 8000928:	2300      	movs	r3, #0
 800092a:	747b      	strb	r3, [r7, #17]

		SYSCFG_PCLK_EN();
 800092c:	4b6c      	ldr	r3, [pc, #432]	@ (8000ae0 <GPIO_Init+0x394>)
 800092e:	6c5b      	ldr	r3, [r3, #68]	@ 0x44
 8000930:	4a6b      	ldr	r2, [pc, #428]	@ (8000ae0 <GPIO_Init+0x394>)
 8000932:	f443 4380 	orr.w	r3, r3, #16384	@ 0x4000
 8000936:	6453      	str	r3, [r2, #68]	@ 0x44

		SYSCFG->SYSCFG_EXTICR[exticr_index] &= ~((uint32_t)0xFU << 4U * exticr_position);
 8000938:	4a6a      	ldr	r2, [pc, #424]	@ (8000ae4 <GPIO_Init+0x398>)
 800093a:	7cfb      	ldrb	r3, [r7, #19]
 800093c:	3302      	adds	r3, #2
 800093e:	f852 1023 	ldr.w	r1, [r2, r3, lsl #2]
 8000942:	7cbb      	ldrb	r3, [r7, #18]
 8000944:	009b      	lsls	r3, r3, #2
 8000946:	220f      	movs	r2, #15
 8000948:	fa02 f303 	lsl.w	r3, r2, r3
 800094c:	43da      	mvns	r2, r3
 800094e:	4865      	ldr	r0, [pc, #404]	@ (8000ae4 <GPIO_Init+0x398>)
 8000950:	7cfb      	ldrb	r3, [r7, #19]
 8000952:	400a      	ands	r2, r1
 8000954:	3302      	adds	r3, #2
 8000956:	f840 2023 	str.w	r2, [r0, r3, lsl #2]
		SYSCFG->SYSCFG_EXTICR[exticr_index] |= ((uint32_t)port_code << 4U * exticr_position);
 800095a:	4a62      	ldr	r2, [pc, #392]	@ (8000ae4 <GPIO_Init+0x398>)
 800095c:	7cfb      	ldrb	r3, [r7, #19]
 800095e:	3302      	adds	r3, #2
 8000960:	f852 1023 	ldr.w	r1, [r2, r3, lsl #2]
 8000964:	7c7a      	ldrb	r2, [r7, #17]
 8000966:	7cbb      	ldrb	r3, [r7, #18]
 8000968:	009b      	lsls	r3, r3, #2
 800096a:	409a      	lsls	r2, r3
 800096c:	485d      	ldr	r0, [pc, #372]	@ (8000ae4 <GPIO_Init+0x398>)
 800096e:	7cfb      	ldrb	r3, [r7, #19]
 8000970:	430a      	orrs	r2, r1
 8000972:	3302      	adds	r3, #2
 8000974:	f840 2023 	str.w	r2, [r0, r3, lsl #2]

		/*
		 * Store port mapping for callback layer
		 */
		GPIO_EXTI_PortMap[pGPIOHandle->GPIO_PinConfig.GPIO_PinNumber] = pGPIOHandle->pGPIOx;
 8000978:	687b      	ldr	r3, [r7, #4]
 800097a:	791b      	ldrb	r3, [r3, #4]
 800097c:	4619      	mov	r1, r3
 800097e:	687b      	ldr	r3, [r7, #4]
 8000980:	681b      	ldr	r3, [r3, #0]
 8000982:	4a59      	ldr	r2, [pc, #356]	@ (8000ae8 <GPIO_Init+0x39c>)
 8000984:	f842 3021 	str.w	r3, [r2, r1, lsl #2]

		//Enable the EXTI interrupt delivery using IMR
		EXTI->EXTI_IMR |= (1U << pGPIOHandle->GPIO_PinConfig.GPIO_PinNumber);
 8000988:	4b58      	ldr	r3, [pc, #352]	@ (8000aec <GPIO_Init+0x3a0>)
 800098a:	681a      	ldr	r2, [r3, #0]
 800098c:	687b      	ldr	r3, [r7, #4]
 800098e:	791b      	ldrb	r3, [r3, #4]
 8000990:	4619      	mov	r1, r3
 8000992:	2301      	movs	r3, #1
 8000994:	408b      	lsls	r3, r1
 8000996:	4955      	ldr	r1, [pc, #340]	@ (8000aec <GPIO_Init+0x3a0>)
 8000998:	4313      	orrs	r3, r2
 800099a:	600b      	str	r3, [r1, #0]

	/*
	 * 3. Configure output type
	 * OTYPER register: 1 bit for each pin
	 */
	temp = 0;
 800099c:	2300      	movs	r3, #0
 800099e:	617b      	str	r3, [r7, #20]

	temp = ((uint32_t)pGPIOHandle->GPIO_PinConfig.GPIO_PinOPType << (pGPIOHandle->GPIO_PinConfig.GPIO_PinNumber));
 80009a0:	687b      	ldr	r3, [r7, #4]
 80009a2:	7a1b      	ldrb	r3, [r3, #8]
 80009a4:	461a      	mov	r2, r3
 80009a6:	687b      	ldr	r3, [r7, #4]
 80009a8:	791b      	ldrb	r3, [r3, #4]
 80009aa:	fa02 f303 	lsl.w	r3, r2, r3
 80009ae:	617b      	str	r3, [r7, #20]
	pGPIOHandle->pGPIOx->GPIO_OTYPER &= ~(0x1U << pGPIOHandle->GPIO_PinConfig.GPIO_PinNumber);
 80009b0:	687b      	ldr	r3, [r7, #4]
 80009b2:	681b      	ldr	r3, [r3, #0]
 80009b4:	6859      	ldr	r1, [r3, #4]
 80009b6:	687b      	ldr	r3, [r7, #4]
 80009b8:	791b      	ldrb	r3, [r3, #4]
 80009ba:	461a      	mov	r2, r3
 80009bc:	2301      	movs	r3, #1
 80009be:	4093      	lsls	r3, r2
 80009c0:	43da      	mvns	r2, r3
 80009c2:	687b      	ldr	r3, [r7, #4]
 80009c4:	681b      	ldr	r3, [r3, #0]
 80009c6:	400a      	ands	r2, r1
 80009c8:	605a      	str	r2, [r3, #4]
	pGPIOHandle->pGPIOx->GPIO_OTYPER |= temp;
 80009ca:	687b      	ldr	r3, [r7, #4]
 80009cc:	681b      	ldr	r3, [r3, #0]
 80009ce:	6859      	ldr	r1, [r3, #4]
 80009d0:	687b      	ldr	r3, [r7, #4]
 80009d2:	681b      	ldr	r3, [r3, #0]
 80009d4:	697a      	ldr	r2, [r7, #20]
 80009d6:	430a      	orrs	r2, r1
 80009d8:	605a      	str	r2, [r3, #4]

	/*
	 * 4. Configure output speed
	 * OSPEEDR register: 2 bits for each pin
	 */
	temp = 0;
 80009da:	2300      	movs	r3, #0
 80009dc:	617b      	str	r3, [r7, #20]

	temp = ((uint32_t)pGPIOHandle->GPIO_PinConfig.GPIO_PinSpeed << (2U * pGPIOHandle->GPIO_PinConfig.GPIO_PinNumber));
 80009de:	687b      	ldr	r3, [r7, #4]
 80009e0:	799b      	ldrb	r3, [r3, #6]
 80009e2:	461a      	mov	r2, r3
 80009e4:	687b      	ldr	r3, [r7, #4]
 80009e6:	791b      	ldrb	r3, [r3, #4]
 80009e8:	005b      	lsls	r3, r3, #1
 80009ea:	fa02 f303 	lsl.w	r3, r2, r3
 80009ee:	617b      	str	r3, [r7, #20]
	pGPIOHandle->pGPIOx->GPIO_OSPEEDR &= ~(0x3U << 2U * pGPIOHandle->GPIO_PinConfig.GPIO_PinNumber);
 80009f0:	687b      	ldr	r3, [r7, #4]
 80009f2:	681b      	ldr	r3, [r3, #0]
 80009f4:	6899      	ldr	r1, [r3, #8]
 80009f6:	687b      	ldr	r3, [r7, #4]
 80009f8:	791b      	ldrb	r3, [r3, #4]
 80009fa:	005b      	lsls	r3, r3, #1
 80009fc:	2203      	movs	r2, #3
 80009fe:	fa02 f303 	lsl.w	r3, r2, r3
 8000a02:	43da      	mvns	r2, r3
 8000a04:	687b      	ldr	r3, [r7, #4]
 8000a06:	681b      	ldr	r3, [r3, #0]
 8000a08:	400a      	ands	r2, r1
 8000a0a:	609a      	str	r2, [r3, #8]
	pGPIOHandle->pGPIOx->GPIO_OSPEEDR |= temp;
 8000a0c:	687b      	ldr	r3, [r7, #4]
 8000a0e:	681b      	ldr	r3, [r3, #0]
 8000a10:	6899      	ldr	r1, [r3, #8]
 8000a12:	687b      	ldr	r3, [r7, #4]
 8000a14:	681b      	ldr	r3, [r3, #0]
 8000a16:	697a      	ldr	r2, [r7, #20]
 8000a18:	430a      	orrs	r2, r1
 8000a1a:	609a      	str	r2, [r3, #8]
	/*
	 * 5. Configure pull-up / pull-down
	 * PUPDR register: 2 bits for each pin
	 */
	temp = 0;
 8000a1c:	2300      	movs	r3, #0
 8000a1e:	617b      	str	r3, [r7, #20]

	temp = ((uint32_t)pGPIOHandle->GPIO_PinConfig.GPIO_PinPuPdControl << (2U * pGPIOHandle->GPIO_PinConfig.GPIO_PinNumber));
 8000a20:	687b      	ldr	r3, [r7, #4]
 8000a22:	79db      	ldrb	r3, [r3, #7]
 8000a24:	461a      	mov	r2, r3
 8000a26:	687b      	ldr	r3, [r7, #4]
 8000a28:	791b      	ldrb	r3, [r3, #4]
 8000a2a:	005b      	lsls	r3, r3, #1
 8000a2c:	fa02 f303 	lsl.w	r3, r2, r3
 8000a30:	617b      	str	r3, [r7, #20]
	pGPIOHandle->pGPIOx->GPIO_PUPDR &= ~(0x3U << 2U * pGPIOHandle->GPIO_PinConfig.GPIO_PinNumber);
 8000a32:	687b      	ldr	r3, [r7, #4]
 8000a34:	681b      	ldr	r3, [r3, #0]
 8000a36:	68d9      	ldr	r1, [r3, #12]
 8000a38:	687b      	ldr	r3, [r7, #4]
 8000a3a:	791b      	ldrb	r3, [r3, #4]
 8000a3c:	005b      	lsls	r3, r3, #1
 8000a3e:	2203      	movs	r2, #3
 8000a40:	fa02 f303 	lsl.w	r3, r2, r3
 8000a44:	43da      	mvns	r2, r3
 8000a46:	687b      	ldr	r3, [r7, #4]
 8000a48:	681b      	ldr	r3, [r3, #0]
 8000a4a:	400a      	ands	r2, r1
 8000a4c:	60da      	str	r2, [r3, #12]
	pGPIOHandle->pGPIOx->GPIO_PUPDR |= temp;
 8000a4e:	687b      	ldr	r3, [r7, #4]
 8000a50:	681b      	ldr	r3, [r3, #0]
 8000a52:	68d9      	ldr	r1, [r3, #12]
 8000a54:	687b      	ldr	r3, [r7, #4]
 8000a56:	681b      	ldr	r3, [r3, #0]
 8000a58:	697a      	ldr	r2, [r7, #20]
 8000a5a:	430a      	orrs	r2, r1
 8000a5c:	60da      	str	r2, [r3, #12]
	/*
	 * 6. Configure alternate function if needed
	 * AFR[0] = AFRL for pins 0-7
	 * AFR[1] = AFRH for pins 8-15
	 */
	temp = 0;
 8000a5e:	2300      	movs	r3, #0
 8000a60:	617b      	str	r3, [r7, #20]


	if(pGPIOHandle->GPIO_PinConfig.GPIO_PinMode == GPIO_MODE_ALTFN)
 8000a62:	687b      	ldr	r3, [r7, #4]
 8000a64:	795b      	ldrb	r3, [r3, #5]
 8000a66:	2b02      	cmp	r3, #2
 8000a68:	d135      	bne.n	8000ad6 <GPIO_Init+0x38a>
	{
		uint8_t register_index = 0;
 8000a6a:	2300      	movs	r3, #0
 8000a6c:	743b      	strb	r3, [r7, #16]
		uint8_t pin_index = 0;
 8000a6e:	2300      	movs	r3, #0
 8000a70:	73fb      	strb	r3, [r7, #15]

		register_index = pGPIOHandle->GPIO_PinConfig.GPIO_PinNumber / 8U;
 8000a72:	687b      	ldr	r3, [r7, #4]
 8000a74:	791b      	ldrb	r3, [r3, #4]
 8000a76:	08db      	lsrs	r3, r3, #3
 8000a78:	743b      	strb	r3, [r7, #16]
		pin_index = pGPIOHandle->GPIO_PinConfig.GPIO_PinNumber % 8U;
 8000a7a:	687b      	ldr	r3, [r7, #4]
 8000a7c:	791b      	ldrb	r3, [r3, #4]
 8000a7e:	f003 0307 	and.w	r3, r3, #7
 8000a82:	73fb      	strb	r3, [r7, #15]

		temp = ((uint32_t)pGPIOHandle->GPIO_PinConfig.GPIO_PinAltFunMode
 8000a84:	687b      	ldr	r3, [r7, #4]
 8000a86:	7a5b      	ldrb	r3, [r3, #9]
 8000a88:	461a      	mov	r2, r3
				<< (4U * pin_index));
 8000a8a:	7bfb      	ldrb	r3, [r7, #15]
 8000a8c:	009b      	lsls	r3, r3, #2
		temp = ((uint32_t)pGPIOHandle->GPIO_PinConfig.GPIO_PinAltFunMode
 8000a8e:	fa02 f303 	lsl.w	r3, r2, r3
 8000a92:	617b      	str	r3, [r7, #20]

		pGPIOHandle->pGPIOx->GPIO_AFR[register_index] &= ~((uint32_t)0xFU
 8000a94:	687b      	ldr	r3, [r7, #4]
 8000a96:	681b      	ldr	r3, [r3, #0]
 8000a98:	7c3a      	ldrb	r2, [r7, #16]
 8000a9a:	3208      	adds	r2, #8
 8000a9c:	f853 0022 	ldr.w	r0, [r3, r2, lsl #2]
				<< (4U * pin_index));
 8000aa0:	7bfb      	ldrb	r3, [r7, #15]
 8000aa2:	009b      	lsls	r3, r3, #2
 8000aa4:	220f      	movs	r2, #15
 8000aa6:	fa02 f303 	lsl.w	r3, r2, r3
		pGPIOHandle->pGPIOx->GPIO_AFR[register_index] &= ~((uint32_t)0xFU
 8000aaa:	43d9      	mvns	r1, r3
 8000aac:	687b      	ldr	r3, [r7, #4]
 8000aae:	681b      	ldr	r3, [r3, #0]
 8000ab0:	7c3a      	ldrb	r2, [r7, #16]
 8000ab2:	4001      	ands	r1, r0
 8000ab4:	3208      	adds	r2, #8
 8000ab6:	f843 1022 	str.w	r1, [r3, r2, lsl #2]

		pGPIOHandle->pGPIOx->GPIO_AFR[register_index] |= temp;
 8000aba:	687b      	ldr	r3, [r7, #4]
 8000abc:	681b      	ldr	r3, [r3, #0]
 8000abe:	7c3a      	ldrb	r2, [r7, #16]
 8000ac0:	3208      	adds	r2, #8
 8000ac2:	f853 0022 	ldr.w	r0, [r3, r2, lsl #2]
 8000ac6:	687b      	ldr	r3, [r7, #4]
 8000ac8:	681b      	ldr	r3, [r3, #0]
 8000aca:	7c3a      	ldrb	r2, [r7, #16]
 8000acc:	6979      	ldr	r1, [r7, #20]
 8000ace:	4301      	orrs	r1, r0
 8000ad0:	3208      	adds	r2, #8
 8000ad2:	f843 1022 	str.w	r1, [r3, r2, lsl #2]
	}


}
 8000ad6:	bf00      	nop
 8000ad8:	3718      	adds	r7, #24
 8000ada:	46bd      	mov	sp, r7
 8000adc:	bd80      	pop	{r7, pc}
 8000ade:	bf00      	nop
 8000ae0:	40023800 	.word	0x40023800
 8000ae4:	40013800 	.word	0x40013800
 8000ae8:	20000020 	.word	0x20000020
 8000aec:	40013c00 	.word	0x40013c00

08000af0 <GPIO_IRQHandling>:
	*(NVIC_PR_BASEADDR + iprx) |=  ((IRQPriority & 0x0FU) << shift_amount);
}


void GPIO_IRQHandling(uint8_t PinNumber)
{
 8000af0:	b580      	push	{r7, lr}
 8000af2:	b082      	sub	sp, #8
 8000af4:	af00      	add	r7, sp, #0
 8000af6:	4603      	mov	r3, r0
 8000af8:	71fb      	strb	r3, [r7, #7]
	if (EXTI->EXTI_PR & (1U << PinNumber))
 8000afa:	4b0e      	ldr	r3, [pc, #56]	@ (8000b34 <GPIO_IRQHandling+0x44>)
 8000afc:	695a      	ldr	r2, [r3, #20]
 8000afe:	79fb      	ldrb	r3, [r7, #7]
 8000b00:	2101      	movs	r1, #1
 8000b02:	fa01 f303 	lsl.w	r3, r1, r3
 8000b06:	4013      	ands	r3, r2
 8000b08:	2b00      	cmp	r3, #0
 8000b0a:	d00e      	beq.n	8000b2a <GPIO_IRQHandling+0x3a>
	{
		/*
		 * Clear pending bit by writing 1
		 */
		EXTI->EXTI_PR = (1U << PinNumber);
 8000b0c:	79fb      	ldrb	r3, [r7, #7]
 8000b0e:	4a09      	ldr	r2, [pc, #36]	@ (8000b34 <GPIO_IRQHandling+0x44>)
 8000b10:	2101      	movs	r1, #1
 8000b12:	fa01 f303 	lsl.w	r3, r1, r3
 8000b16:	6153      	str	r3, [r2, #20]

		/*
		 * Notify application layer with port and pin info
		 */
		GPIO_ApplicationEventCallback(GPIO_EXTI_PortMap[PinNumber], PinNumber);
 8000b18:	79fb      	ldrb	r3, [r7, #7]
 8000b1a:	4a07      	ldr	r2, [pc, #28]	@ (8000b38 <GPIO_IRQHandling+0x48>)
 8000b1c:	f852 3023 	ldr.w	r3, [r2, r3, lsl #2]
 8000b20:	79fa      	ldrb	r2, [r7, #7]
 8000b22:	4611      	mov	r1, r2
 8000b24:	4618      	mov	r0, r3
 8000b26:	f000 f809 	bl	8000b3c <GPIO_ApplicationEventCallback>
	}
}
 8000b2a:	bf00      	nop
 8000b2c:	3708      	adds	r7, #8
 8000b2e:	46bd      	mov	sp, r7
 8000b30:	bd80      	pop	{r7, pc}
 8000b32:	bf00      	nop
 8000b34:	40013c00 	.word	0x40013c00
 8000b38:	20000020 	.word	0x20000020

08000b3c <GPIO_ApplicationEventCallback>:
/*
 * Application layer Function
 */
__attribute__((weak)) void GPIO_ApplicationEventCallback(GPIO_RegDef_t *pGPIOx, uint8_t PinNumber)
{
 8000b3c:	b480      	push	{r7}
 8000b3e:	b083      	sub	sp, #12
 8000b40:	af00      	add	r7, sp, #0
 8000b42:	6078      	str	r0, [r7, #4]
 8000b44:	460b      	mov	r3, r1
 8000b46:	70fb      	strb	r3, [r7, #3]
	(void)pGPIOx;
	(void)PinNumber;
}
 8000b48:	bf00      	nop
 8000b4a:	370c      	adds	r7, #12
 8000b4c:	46bd      	mov	sp, r7
 8000b4e:	f85d 7b04 	ldr.w	r7, [sp], #4
 8000b52:	4770      	bx	lr

08000b54 <I2C_RegisterHandle>:
static I2C_Handle_t *s_I2C2Handle = 0;
static I2C_Handle_t *s_I2C3Handle = 0;
static I2C_Handle_t *s_I2C4Handle = 0;

static void I2C_RegisterHandle(I2C_Handle_t *pI2CHandle)
{
 8000b54:	b480      	push	{r7}
 8000b56:	b083      	sub	sp, #12
 8000b58:	af00      	add	r7, sp, #0
 8000b5a:	6078      	str	r0, [r7, #4]
    if (pI2CHandle->pI2Cx == I2C1)
 8000b5c:	687b      	ldr	r3, [r7, #4]
 8000b5e:	681b      	ldr	r3, [r3, #0]
 8000b60:	4a13      	ldr	r2, [pc, #76]	@ (8000bb0 <I2C_RegisterHandle+0x5c>)
 8000b62:	4293      	cmp	r3, r2
 8000b64:	d103      	bne.n	8000b6e <I2C_RegisterHandle+0x1a>
    {
        s_I2C1Handle = pI2CHandle;
 8000b66:	4a13      	ldr	r2, [pc, #76]	@ (8000bb4 <I2C_RegisterHandle+0x60>)
 8000b68:	687b      	ldr	r3, [r7, #4]
 8000b6a:	6013      	str	r3, [r2, #0]
    }
    else if (pI2CHandle->pI2Cx == I2C4)
    {
        s_I2C4Handle = pI2CHandle;
    }
}
 8000b6c:	e019      	b.n	8000ba2 <I2C_RegisterHandle+0x4e>
    else if (pI2CHandle->pI2Cx == I2C2)
 8000b6e:	687b      	ldr	r3, [r7, #4]
 8000b70:	681b      	ldr	r3, [r3, #0]
 8000b72:	4a11      	ldr	r2, [pc, #68]	@ (8000bb8 <I2C_RegisterHandle+0x64>)
 8000b74:	4293      	cmp	r3, r2
 8000b76:	d103      	bne.n	8000b80 <I2C_RegisterHandle+0x2c>
        s_I2C2Handle = pI2CHandle;
 8000b78:	4a10      	ldr	r2, [pc, #64]	@ (8000bbc <I2C_RegisterHandle+0x68>)
 8000b7a:	687b      	ldr	r3, [r7, #4]
 8000b7c:	6013      	str	r3, [r2, #0]
}
 8000b7e:	e010      	b.n	8000ba2 <I2C_RegisterHandle+0x4e>
    else if (pI2CHandle->pI2Cx == I2C3)
 8000b80:	687b      	ldr	r3, [r7, #4]
 8000b82:	681b      	ldr	r3, [r3, #0]
 8000b84:	4a0e      	ldr	r2, [pc, #56]	@ (8000bc0 <I2C_RegisterHandle+0x6c>)
 8000b86:	4293      	cmp	r3, r2
 8000b88:	d103      	bne.n	8000b92 <I2C_RegisterHandle+0x3e>
        s_I2C3Handle = pI2CHandle;
 8000b8a:	4a0e      	ldr	r2, [pc, #56]	@ (8000bc4 <I2C_RegisterHandle+0x70>)
 8000b8c:	687b      	ldr	r3, [r7, #4]
 8000b8e:	6013      	str	r3, [r2, #0]
}
 8000b90:	e007      	b.n	8000ba2 <I2C_RegisterHandle+0x4e>
    else if (pI2CHandle->pI2Cx == I2C4)
 8000b92:	687b      	ldr	r3, [r7, #4]
 8000b94:	681b      	ldr	r3, [r3, #0]
 8000b96:	4a0c      	ldr	r2, [pc, #48]	@ (8000bc8 <I2C_RegisterHandle+0x74>)
 8000b98:	4293      	cmp	r3, r2
 8000b9a:	d102      	bne.n	8000ba2 <I2C_RegisterHandle+0x4e>
        s_I2C4Handle = pI2CHandle;
 8000b9c:	4a0b      	ldr	r2, [pc, #44]	@ (8000bcc <I2C_RegisterHandle+0x78>)
 8000b9e:	687b      	ldr	r3, [r7, #4]
 8000ba0:	6013      	str	r3, [r2, #0]
}
 8000ba2:	bf00      	nop
 8000ba4:	370c      	adds	r7, #12
 8000ba6:	46bd      	mov	sp, r7
 8000ba8:	f85d 7b04 	ldr.w	r7, [sp], #4
 8000bac:	4770      	bx	lr
 8000bae:	bf00      	nop
 8000bb0:	40005400 	.word	0x40005400
 8000bb4:	20000060 	.word	0x20000060
 8000bb8:	40005800 	.word	0x40005800
 8000bbc:	20000064 	.word	0x20000064
 8000bc0:	40005c00 	.word	0x40005c00
 8000bc4:	20000068 	.word	0x20000068
 8000bc8:	40006000 	.word	0x40006000
 8000bcc:	2000006c 	.word	0x2000006c

08000bd0 <I2C_GetHandleFromInstance>:

static I2C_Handle_t *I2C_GetHandleFromInstance(I2C_RegDef_t *pI2Cx)
{
 8000bd0:	b480      	push	{r7}
 8000bd2:	b083      	sub	sp, #12
 8000bd4:	af00      	add	r7, sp, #0
 8000bd6:	6078      	str	r0, [r7, #4]
    if (pI2Cx == I2C1)
 8000bd8:	687b      	ldr	r3, [r7, #4]
 8000bda:	4a11      	ldr	r2, [pc, #68]	@ (8000c20 <I2C_GetHandleFromInstance+0x50>)
 8000bdc:	4293      	cmp	r3, r2
 8000bde:	d102      	bne.n	8000be6 <I2C_GetHandleFromInstance+0x16>
    {
        return s_I2C1Handle;
 8000be0:	4b10      	ldr	r3, [pc, #64]	@ (8000c24 <I2C_GetHandleFromInstance+0x54>)
 8000be2:	681b      	ldr	r3, [r3, #0]
 8000be4:	e015      	b.n	8000c12 <I2C_GetHandleFromInstance+0x42>
    }
    else if (pI2Cx == I2C2)
 8000be6:	687b      	ldr	r3, [r7, #4]
 8000be8:	4a0f      	ldr	r2, [pc, #60]	@ (8000c28 <I2C_GetHandleFromInstance+0x58>)
 8000bea:	4293      	cmp	r3, r2
 8000bec:	d102      	bne.n	8000bf4 <I2C_GetHandleFromInstance+0x24>
    {
        return s_I2C2Handle;
 8000bee:	4b0f      	ldr	r3, [pc, #60]	@ (8000c2c <I2C_GetHandleFromInstance+0x5c>)
 8000bf0:	681b      	ldr	r3, [r3, #0]
 8000bf2:	e00e      	b.n	8000c12 <I2C_GetHandleFromInstance+0x42>
    }
    else if (pI2Cx == I2C3)
 8000bf4:	687b      	ldr	r3, [r7, #4]
 8000bf6:	4a0e      	ldr	r2, [pc, #56]	@ (8000c30 <I2C_GetHandleFromInstance+0x60>)
 8000bf8:	4293      	cmp	r3, r2
 8000bfa:	d102      	bne.n	8000c02 <I2C_GetHandleFromInstance+0x32>
    {
        return s_I2C3Handle;
 8000bfc:	4b0d      	ldr	r3, [pc, #52]	@ (8000c34 <I2C_GetHandleFromInstance+0x64>)
 8000bfe:	681b      	ldr	r3, [r3, #0]
 8000c00:	e007      	b.n	8000c12 <I2C_GetHandleFromInstance+0x42>
    }
    else if (pI2Cx == I2C4)
 8000c02:	687b      	ldr	r3, [r7, #4]
 8000c04:	4a0c      	ldr	r2, [pc, #48]	@ (8000c38 <I2C_GetHandleFromInstance+0x68>)
 8000c06:	4293      	cmp	r3, r2
 8000c08:	d102      	bne.n	8000c10 <I2C_GetHandleFromInstance+0x40>
    {
        return s_I2C4Handle;
 8000c0a:	4b0c      	ldr	r3, [pc, #48]	@ (8000c3c <I2C_GetHandleFromInstance+0x6c>)
 8000c0c:	681b      	ldr	r3, [r3, #0]
 8000c0e:	e000      	b.n	8000c12 <I2C_GetHandleFromInstance+0x42>
    }

    return 0;
 8000c10:	2300      	movs	r3, #0
}
 8000c12:	4618      	mov	r0, r3
 8000c14:	370c      	adds	r7, #12
 8000c16:	46bd      	mov	sp, r7
 8000c18:	f85d 7b04 	ldr.w	r7, [sp], #4
 8000c1c:	4770      	bx	lr
 8000c1e:	bf00      	nop
 8000c20:	40005400 	.word	0x40005400
 8000c24:	20000060 	.word	0x20000060
 8000c28:	40005800 	.word	0x40005800
 8000c2c:	20000064 	.word	0x20000064
 8000c30:	40005c00 	.word	0x40005c00
 8000c34:	20000068 	.word	0x20000068
 8000c38:	40006000 	.word	0x40006000
 8000c3c:	2000006c 	.word	0x2000006c

08000c40 <I2C_PrepareCR2>:
static uint32_t I2C_PrepareCR2(uint16_t SlaveAddr, uint8_t AddressMode,uint8_t Direction, uint32_t Len, uint8_t Sr)
{
 8000c40:	b480      	push	{r7}
 8000c42:	b085      	sub	sp, #20
 8000c44:	af00      	add	r7, sp, #0
 8000c46:	603b      	str	r3, [r7, #0]
 8000c48:	4603      	mov	r3, r0
 8000c4a:	80fb      	strh	r3, [r7, #6]
 8000c4c:	460b      	mov	r3, r1
 8000c4e:	717b      	strb	r3, [r7, #5]
 8000c50:	4613      	mov	r3, r2
 8000c52:	713b      	strb	r3, [r7, #4]
    uint32_t cr2 = 0U;
 8000c54:	2300      	movs	r3, #0
 8000c56:	60fb      	str	r3, [r7, #12]
    /*
     * First IT version:
     * Len must be <= 255.
     * NBYTES field is 8-bit.
     */
    if (AddressMode == I2C_ADDR_MODE_7BIT)
 8000c58:	797b      	ldrb	r3, [r7, #5]
 8000c5a:	2b00      	cmp	r3, #0
 8000c5c:	d109      	bne.n	8000c72 <I2C_PrepareCR2+0x32>
    {
        cr2 |= (((uint32_t)SlaveAddr & 0x7FU) << 1U);
 8000c5e:	88fb      	ldrh	r3, [r7, #6]
 8000c60:	005b      	lsls	r3, r3, #1
 8000c62:	b2db      	uxtb	r3, r3
 8000c64:	68fa      	ldr	r2, [r7, #12]
 8000c66:	4313      	orrs	r3, r2
 8000c68:	60fb      	str	r3, [r7, #12]
         * 10-bit address will be added later.
         */
        return 0U;
    }

    if (Direction == I2C_TRANSFER_READ)
 8000c6a:	793b      	ldrb	r3, [r7, #4]
 8000c6c:	2b01      	cmp	r3, #1
 8000c6e:	d106      	bne.n	8000c7e <I2C_PrepareCR2+0x3e>
 8000c70:	e001      	b.n	8000c76 <I2C_PrepareCR2+0x36>
        return 0U;
 8000c72:	2300      	movs	r3, #0
 8000c74:	e012      	b.n	8000c9c <I2C_PrepareCR2+0x5c>
    {
        cr2 |= (1U << I2C_CR2_RD_WRN);
 8000c76:	68fb      	ldr	r3, [r7, #12]
 8000c78:	f443 6380 	orr.w	r3, r3, #1024	@ 0x400
 8000c7c:	60fb      	str	r3, [r7, #12]
    }

    cr2 |= ((Len & 0xFFU) << I2C_CR2_NBYTES);
 8000c7e:	683b      	ldr	r3, [r7, #0]
 8000c80:	041b      	lsls	r3, r3, #16
 8000c82:	f403 037f 	and.w	r3, r3, #16711680	@ 0xff0000
 8000c86:	68fa      	ldr	r2, [r7, #12]
 8000c88:	4313      	orrs	r3, r2
 8000c8a:	60fb      	str	r3, [r7, #12]

    /*
     * Sr disabled -> AUTOEND enabled.
     * Sr enabled  -> no AUTOEND, TC event will finish the phase.
     */
    if (Sr == I2C_DISABLE_SR)
 8000c8c:	7e3b      	ldrb	r3, [r7, #24]
 8000c8e:	2b00      	cmp	r3, #0
 8000c90:	d103      	bne.n	8000c9a <I2C_PrepareCR2+0x5a>
    {
        cr2 |= (1U << I2C_CR2_AUTOEND);
 8000c92:	68fb      	ldr	r3, [r7, #12]
 8000c94:	f043 7300 	orr.w	r3, r3, #33554432	@ 0x2000000
 8000c98:	60fb      	str	r3, [r7, #12]
    }

    return cr2;
 8000c9a:	68fb      	ldr	r3, [r7, #12]
}
 8000c9c:	4618      	mov	r0, r3
 8000c9e:	3714      	adds	r7, #20
 8000ca0:	46bd      	mov	sp, r7
 8000ca2:	f85d 7b04 	ldr.w	r7, [sp], #4
 8000ca6:	4770      	bx	lr

08000ca8 <I2C_StartReadPhaseFromWriteRead>:
static void I2C_StartReadPhaseFromWriteRead(I2C_Handle_t *pI2CHandle)
{
 8000ca8:	b580      	push	{r7, lr}
 8000caa:	b086      	sub	sp, #24
 8000cac:	af02      	add	r7, sp, #8
 8000cae:	6078      	str	r0, [r7, #4]
    uint32_t cr2;
    I2C_RegDef_t *pI2Cx;

    pI2Cx = pI2CHandle->pI2Cx;
 8000cb0:	687b      	ldr	r3, [r7, #4]
 8000cb2:	681b      	ldr	r3, [r3, #0]
 8000cb4:	60fb      	str	r3, [r7, #12]

    /*
     * TX phase finished.
     * Now switch to RX phase with repeated START.
     */
    pI2CHandle->pTxBuffer = 0;
 8000cb6:	687b      	ldr	r3, [r7, #4]
 8000cb8:	2200      	movs	r2, #0
 8000cba:	60da      	str	r2, [r3, #12]
    pI2CHandle->TxLen = 0U;
 8000cbc:	687b      	ldr	r3, [r7, #4]
 8000cbe:	2200      	movs	r2, #0
 8000cc0:	615a      	str	r2, [r3, #20]
    pI2CHandle->TxRxState = I2C_BUSY_IN_RX;
 8000cc2:	687b      	ldr	r3, [r7, #4]
 8000cc4:	2202      	movs	r2, #2
 8000cc6:	f883 2020 	strb.w	r2, [r3, #32]

    /*
     * Disable TX interrupt, enable RX interrupt.
     * TC/STOP/NACK/ERR interrupts remain active.
     */
    pI2Cx->I2C_CR1 &= ~(1U << I2C_CR1_TXIE);
 8000cca:	68fb      	ldr	r3, [r7, #12]
 8000ccc:	681b      	ldr	r3, [r3, #0]
 8000cce:	f023 0202 	bic.w	r2, r3, #2
 8000cd2:	68fb      	ldr	r3, [r7, #12]
 8000cd4:	601a      	str	r2, [r3, #0]
    pI2Cx->I2C_CR1 |=  (1U << I2C_CR1_RXIE);
 8000cd6:	68fb      	ldr	r3, [r7, #12]
 8000cd8:	681b      	ldr	r3, [r3, #0]
 8000cda:	f043 0204 	orr.w	r2, r3, #4
 8000cde:	68fb      	ldr	r3, [r7, #12]
 8000ce0:	601a      	str	r2, [r3, #0]

    /*
     * RX phase must end with STOP.
     * So Sr = I2C_DISABLE_SR for the read phase.
     */
    cr2 = I2C_PrepareCR2(pI2CHandle->DevAddr,
 8000ce2:	687b      	ldr	r3, [r7, #4]
 8000ce4:	8b98      	ldrh	r0, [r3, #28]
 8000ce6:	687b      	ldr	r3, [r7, #4]
 8000ce8:	7f99      	ldrb	r1, [r3, #30]
 8000cea:	687b      	ldr	r3, [r7, #4]
 8000cec:	699b      	ldr	r3, [r3, #24]
 8000cee:	2200      	movs	r2, #0
 8000cf0:	9200      	str	r2, [sp, #0]
 8000cf2:	2201      	movs	r2, #1
 8000cf4:	f7ff ffa4 	bl	8000c40 <I2C_PrepareCR2>
 8000cf8:	60b8      	str	r0, [r7, #8]
                         I2C_DISABLE_SR);

    /*
     * Generate repeated START with read direction.
     */
    pI2Cx->I2C_CR2 = (cr2 | (1U << I2C_CR2_START));
 8000cfa:	68bb      	ldr	r3, [r7, #8]
 8000cfc:	f443 5200 	orr.w	r2, r3, #8192	@ 0x2000
 8000d00:	68fb      	ldr	r3, [r7, #12]
 8000d02:	605a      	str	r2, [r3, #4]
}
 8000d04:	bf00      	nop
 8000d06:	3710      	adds	r7, #16
 8000d08:	46bd      	mov	sp, r7
 8000d0a:	bd80      	pop	{r7, pc}

08000d0c <I2C_PeriClockControl>:

    return I2C_STATUS_OK;
}

void I2C_PeriClockControl(I2C_RegDef_t *pI2Cx, uint8_t EnorDi)
{
 8000d0c:	b480      	push	{r7}
 8000d0e:	b083      	sub	sp, #12
 8000d10:	af00      	add	r7, sp, #0
 8000d12:	6078      	str	r0, [r7, #4]
 8000d14:	460b      	mov	r3, r1
 8000d16:	70fb      	strb	r3, [r7, #3]
    if (EnorDi == ENABLE)
 8000d18:	78fb      	ldrb	r3, [r7, #3]
 8000d1a:	2b01      	cmp	r3, #1
 8000d1c:	d12b      	bne.n	8000d76 <I2C_PeriClockControl+0x6a>
    {
        if (pI2Cx == I2C1)
 8000d1e:	687b      	ldr	r3, [r7, #4]
 8000d20:	4a2d      	ldr	r2, [pc, #180]	@ (8000dd8 <I2C_PeriClockControl+0xcc>)
 8000d22:	4293      	cmp	r3, r2
 8000d24:	d106      	bne.n	8000d34 <I2C_PeriClockControl+0x28>
        {
            I2C1_PCLK_EN();
 8000d26:	4b2d      	ldr	r3, [pc, #180]	@ (8000ddc <I2C_PeriClockControl+0xd0>)
 8000d28:	6c1b      	ldr	r3, [r3, #64]	@ 0x40
 8000d2a:	4a2c      	ldr	r2, [pc, #176]	@ (8000ddc <I2C_PeriClockControl+0xd0>)
 8000d2c:	f443 1300 	orr.w	r3, r3, #2097152	@ 0x200000
 8000d30:	6413      	str	r3, [r2, #64]	@ 0x40
        else if (pI2Cx == I2C4)
        {
            I2C4_PCLK_DI();
        }
    }
}
 8000d32:	e04b      	b.n	8000dcc <I2C_PeriClockControl+0xc0>
        else if (pI2Cx == I2C2)
 8000d34:	687b      	ldr	r3, [r7, #4]
 8000d36:	4a2a      	ldr	r2, [pc, #168]	@ (8000de0 <I2C_PeriClockControl+0xd4>)
 8000d38:	4293      	cmp	r3, r2
 8000d3a:	d106      	bne.n	8000d4a <I2C_PeriClockControl+0x3e>
            I2C2_PCLK_EN();
 8000d3c:	4b27      	ldr	r3, [pc, #156]	@ (8000ddc <I2C_PeriClockControl+0xd0>)
 8000d3e:	6c1b      	ldr	r3, [r3, #64]	@ 0x40
 8000d40:	4a26      	ldr	r2, [pc, #152]	@ (8000ddc <I2C_PeriClockControl+0xd0>)
 8000d42:	f443 0380 	orr.w	r3, r3, #4194304	@ 0x400000
 8000d46:	6413      	str	r3, [r2, #64]	@ 0x40
}
 8000d48:	e040      	b.n	8000dcc <I2C_PeriClockControl+0xc0>
        else if (pI2Cx == I2C3)
 8000d4a:	687b      	ldr	r3, [r7, #4]
 8000d4c:	4a25      	ldr	r2, [pc, #148]	@ (8000de4 <I2C_PeriClockControl+0xd8>)
 8000d4e:	4293      	cmp	r3, r2
 8000d50:	d106      	bne.n	8000d60 <I2C_PeriClockControl+0x54>
            I2C3_PCLK_EN();
 8000d52:	4b22      	ldr	r3, [pc, #136]	@ (8000ddc <I2C_PeriClockControl+0xd0>)
 8000d54:	6c1b      	ldr	r3, [r3, #64]	@ 0x40
 8000d56:	4a21      	ldr	r2, [pc, #132]	@ (8000ddc <I2C_PeriClockControl+0xd0>)
 8000d58:	f443 0300 	orr.w	r3, r3, #8388608	@ 0x800000
 8000d5c:	6413      	str	r3, [r2, #64]	@ 0x40
}
 8000d5e:	e035      	b.n	8000dcc <I2C_PeriClockControl+0xc0>
        else if (pI2Cx == I2C4)
 8000d60:	687b      	ldr	r3, [r7, #4]
 8000d62:	4a21      	ldr	r2, [pc, #132]	@ (8000de8 <I2C_PeriClockControl+0xdc>)
 8000d64:	4293      	cmp	r3, r2
 8000d66:	d131      	bne.n	8000dcc <I2C_PeriClockControl+0xc0>
            I2C4_PCLK_EN();
 8000d68:	4b1c      	ldr	r3, [pc, #112]	@ (8000ddc <I2C_PeriClockControl+0xd0>)
 8000d6a:	6c1b      	ldr	r3, [r3, #64]	@ 0x40
 8000d6c:	4a1b      	ldr	r2, [pc, #108]	@ (8000ddc <I2C_PeriClockControl+0xd0>)
 8000d6e:	f043 7380 	orr.w	r3, r3, #16777216	@ 0x1000000
 8000d72:	6413      	str	r3, [r2, #64]	@ 0x40
}
 8000d74:	e02a      	b.n	8000dcc <I2C_PeriClockControl+0xc0>
        if (pI2Cx == I2C1)
 8000d76:	687b      	ldr	r3, [r7, #4]
 8000d78:	4a17      	ldr	r2, [pc, #92]	@ (8000dd8 <I2C_PeriClockControl+0xcc>)
 8000d7a:	4293      	cmp	r3, r2
 8000d7c:	d106      	bne.n	8000d8c <I2C_PeriClockControl+0x80>
            I2C1_PCLK_DI();
 8000d7e:	4b17      	ldr	r3, [pc, #92]	@ (8000ddc <I2C_PeriClockControl+0xd0>)
 8000d80:	6c1b      	ldr	r3, [r3, #64]	@ 0x40
 8000d82:	4a16      	ldr	r2, [pc, #88]	@ (8000ddc <I2C_PeriClockControl+0xd0>)
 8000d84:	f423 1300 	bic.w	r3, r3, #2097152	@ 0x200000
 8000d88:	6413      	str	r3, [r2, #64]	@ 0x40
}
 8000d8a:	e01f      	b.n	8000dcc <I2C_PeriClockControl+0xc0>
        else if (pI2Cx == I2C2)
 8000d8c:	687b      	ldr	r3, [r7, #4]
 8000d8e:	4a14      	ldr	r2, [pc, #80]	@ (8000de0 <I2C_PeriClockControl+0xd4>)
 8000d90:	4293      	cmp	r3, r2
 8000d92:	d106      	bne.n	8000da2 <I2C_PeriClockControl+0x96>
            I2C2_PCLK_DI();
 8000d94:	4b11      	ldr	r3, [pc, #68]	@ (8000ddc <I2C_PeriClockControl+0xd0>)
 8000d96:	6c1b      	ldr	r3, [r3, #64]	@ 0x40
 8000d98:	4a10      	ldr	r2, [pc, #64]	@ (8000ddc <I2C_PeriClockControl+0xd0>)
 8000d9a:	f423 0380 	bic.w	r3, r3, #4194304	@ 0x400000
 8000d9e:	6413      	str	r3, [r2, #64]	@ 0x40
}
 8000da0:	e014      	b.n	8000dcc <I2C_PeriClockControl+0xc0>
        else if (pI2Cx == I2C3)
 8000da2:	687b      	ldr	r3, [r7, #4]
 8000da4:	4a0f      	ldr	r2, [pc, #60]	@ (8000de4 <I2C_PeriClockControl+0xd8>)
 8000da6:	4293      	cmp	r3, r2
 8000da8:	d106      	bne.n	8000db8 <I2C_PeriClockControl+0xac>
            I2C3_PCLK_DI();
 8000daa:	4b0c      	ldr	r3, [pc, #48]	@ (8000ddc <I2C_PeriClockControl+0xd0>)
 8000dac:	6c1b      	ldr	r3, [r3, #64]	@ 0x40
 8000dae:	4a0b      	ldr	r2, [pc, #44]	@ (8000ddc <I2C_PeriClockControl+0xd0>)
 8000db0:	f423 0300 	bic.w	r3, r3, #8388608	@ 0x800000
 8000db4:	6413      	str	r3, [r2, #64]	@ 0x40
}
 8000db6:	e009      	b.n	8000dcc <I2C_PeriClockControl+0xc0>
        else if (pI2Cx == I2C4)
 8000db8:	687b      	ldr	r3, [r7, #4]
 8000dba:	4a0b      	ldr	r2, [pc, #44]	@ (8000de8 <I2C_PeriClockControl+0xdc>)
 8000dbc:	4293      	cmp	r3, r2
 8000dbe:	d105      	bne.n	8000dcc <I2C_PeriClockControl+0xc0>
            I2C4_PCLK_DI();
 8000dc0:	4b06      	ldr	r3, [pc, #24]	@ (8000ddc <I2C_PeriClockControl+0xd0>)
 8000dc2:	6c1b      	ldr	r3, [r3, #64]	@ 0x40
 8000dc4:	4a05      	ldr	r2, [pc, #20]	@ (8000ddc <I2C_PeriClockControl+0xd0>)
 8000dc6:	f023 7380 	bic.w	r3, r3, #16777216	@ 0x1000000
 8000dca:	6413      	str	r3, [r2, #64]	@ 0x40
}
 8000dcc:	bf00      	nop
 8000dce:	370c      	adds	r7, #12
 8000dd0:	46bd      	mov	sp, r7
 8000dd2:	f85d 7b04 	ldr.w	r7, [sp], #4
 8000dd6:	4770      	bx	lr
 8000dd8:	40005400 	.word	0x40005400
 8000ddc:	40023800 	.word	0x40023800
 8000de0:	40005800 	.word	0x40005800
 8000de4:	40005c00 	.word	0x40005c00
 8000de8:	40006000 	.word	0x40006000

08000dec <I2C_Init>:


uint8_t I2C_Init(I2C_Handle_t *pI2CHandle)
{
 8000dec:	b580      	push	{r7, lr}
 8000dee:	b084      	sub	sp, #16
 8000df0:	af00      	add	r7, sp, #0
 8000df2:	6078      	str	r0, [r7, #4]
    uint32_t tempreg = 0U;
 8000df4:	2300      	movs	r3, #0
 8000df6:	60fb      	str	r3, [r7, #12]

    if ((pI2CHandle == 0) || (pI2CHandle->pI2Cx == 0))
 8000df8:	687b      	ldr	r3, [r7, #4]
 8000dfa:	2b00      	cmp	r3, #0
 8000dfc:	d003      	beq.n	8000e06 <I2C_Init+0x1a>
 8000dfe:	687b      	ldr	r3, [r7, #4]
 8000e00:	681b      	ldr	r3, [r3, #0]
 8000e02:	2b00      	cmp	r3, #0
 8000e04:	d101      	bne.n	8000e0a <I2C_Init+0x1e>
    {
        return I2C_STATUS_ERROR;
 8000e06:	2302      	movs	r3, #2
 8000e08:	e074      	b.n	8000ef4 <I2C_Init+0x108>
    }

    if (pI2CHandle->I2C_Config.I2C_Timing == 0U)
 8000e0a:	687b      	ldr	r3, [r7, #4]
 8000e0c:	685b      	ldr	r3, [r3, #4]
 8000e0e:	2b00      	cmp	r3, #0
 8000e10:	d101      	bne.n	8000e16 <I2C_Init+0x2a>
    {
        return I2C_STATUS_ERROR;
 8000e12:	2302      	movs	r3, #2
 8000e14:	e06e      	b.n	8000ef4 <I2C_Init+0x108>
    }

    if (pI2CHandle->I2C_Config.I2C_DigitalFilter > 15U)
 8000e16:	687b      	ldr	r3, [r7, #4]
 8000e18:	7a5b      	ldrb	r3, [r3, #9]
 8000e1a:	2b0f      	cmp	r3, #15
 8000e1c:	d901      	bls.n	8000e22 <I2C_Init+0x36>
    {
        return I2C_STATUS_ERROR;
 8000e1e:	2302      	movs	r3, #2
 8000e20:	e068      	b.n	8000ef4 <I2C_Init+0x108>
    }

    /*
     * 1. Enable peripheral clock.
     */
    I2C_PeriClockControl(pI2CHandle->pI2Cx, ENABLE);
 8000e22:	687b      	ldr	r3, [r7, #4]
 8000e24:	681b      	ldr	r3, [r3, #0]
 8000e26:	2101      	movs	r1, #1
 8000e28:	4618      	mov	r0, r3
 8000e2a:	f7ff ff6f 	bl	8000d0c <I2C_PeriClockControl>

    /*
     * 2. Disable I2C before configuration.
     * TIMINGR and filter settings must be configured while PE = 0.
     */
    I2C_PeripheralControl(pI2CHandle->pI2Cx, DISABLE);
 8000e2e:	687b      	ldr	r3, [r7, #4]
 8000e30:	681b      	ldr	r3, [r3, #0]
 8000e32:	2100      	movs	r1, #0
 8000e34:	4618      	mov	r0, r3
 8000e36:	f000 f861 	bl	8000efc <I2C_PeripheralControl>

    /*
     * 3. Clear CR1 configuration area.
     */
    tempreg = 0U;
 8000e3a:	2300      	movs	r3, #0
 8000e3c:	60fb      	str	r3, [r7, #12]
    /*
     * Analog filter.
     * ANFOFF = 0 -> enabled
     * ANFOFF = 1 -> disabled
     */
    if (pI2CHandle->I2C_Config.I2C_AnalogFilter == I2C_ANALOG_FILTER_DISABLE)
 8000e3e:	687b      	ldr	r3, [r7, #4]
 8000e40:	7a1b      	ldrb	r3, [r3, #8]
 8000e42:	2b01      	cmp	r3, #1
 8000e44:	d103      	bne.n	8000e4e <I2C_Init+0x62>
    {
        tempreg |= (1U << I2C_CR1_ANFOFF);
 8000e46:	68fb      	ldr	r3, [r7, #12]
 8000e48:	f443 5380 	orr.w	r3, r3, #4096	@ 0x1000
 8000e4c:	60fb      	str	r3, [r7, #12]

    /*
     * Digital filter.
     * DNF[3:0] is CR1[11:8].
     */
    tempreg |= ((uint32_t)(pI2CHandle->I2C_Config.I2C_DigitalFilter & 0x0FU) << I2C_CR1_DNF);
 8000e4e:	687b      	ldr	r3, [r7, #4]
 8000e50:	7a5b      	ldrb	r3, [r3, #9]
 8000e52:	021b      	lsls	r3, r3, #8
 8000e54:	f403 6370 	and.w	r3, r3, #3840	@ 0xf00
 8000e58:	68fa      	ldr	r2, [r7, #12]
 8000e5a:	4313      	orrs	r3, r2
 8000e5c:	60fb      	str	r3, [r7, #12]
    /*
     * Clock stretching.
     * NOSTRETCH = 0 -> enabled
     * NOSTRETCH = 1 -> disabled
     */
    if (pI2CHandle->I2C_Config.I2C_ClockStretch == I2C_CLOCK_STRETCH_DISABLE)
 8000e5e:	687b      	ldr	r3, [r7, #4]
 8000e60:	7a9b      	ldrb	r3, [r3, #10]
 8000e62:	2b01      	cmp	r3, #1
 8000e64:	d103      	bne.n	8000e6e <I2C_Init+0x82>
    {
        tempreg |= (1U << I2C_CR1_NOSTRETCH);
 8000e66:	68fb      	ldr	r3, [r7, #12]
 8000e68:	f443 3300 	orr.w	r3, r3, #131072	@ 0x20000
 8000e6c:	60fb      	str	r3, [r7, #12]
    }

    /*
     * Write CR1 while PE = 0.
     */
    pI2CHandle->pI2Cx->I2C_CR1 = tempreg;
 8000e6e:	687b      	ldr	r3, [r7, #4]
 8000e70:	681b      	ldr	r3, [r3, #0]
 8000e72:	68fa      	ldr	r2, [r7, #12]
 8000e74:	601a      	str	r2, [r3, #0]

    /*
     * 4. Configure timing.
     */
    pI2CHandle->pI2Cx->I2C_TIMINGR = pI2CHandle->I2C_Config.I2C_Timing;
 8000e76:	687b      	ldr	r3, [r7, #4]
 8000e78:	681b      	ldr	r3, [r3, #0]
 8000e7a:	687a      	ldr	r2, [r7, #4]
 8000e7c:	6852      	ldr	r2, [r2, #4]
 8000e7e:	611a      	str	r2, [r3, #16]

    /*
     * 5. Clear possible pending flags.
     */
    I2C_ClearErrorFlags(pI2CHandle->pI2Cx);
 8000e80:	687b      	ldr	r3, [r7, #4]
 8000e82:	681b      	ldr	r3, [r3, #0]
 8000e84:	4618      	mov	r0, r3
 8000e86:	f000 f869 	bl	8000f5c <I2C_ClearErrorFlags>
    I2C_ClearSTOPFlag(pI2CHandle->pI2Cx);
 8000e8a:	687b      	ldr	r3, [r7, #4]
 8000e8c:	681b      	ldr	r3, [r3, #0]
 8000e8e:	4618      	mov	r0, r3
 8000e90:	f000 f876 	bl	8000f80 <I2C_ClearSTOPFlag>
    I2C_ClearNACKFlag(pI2CHandle->pI2Cx);
 8000e94:	687b      	ldr	r3, [r7, #4]
 8000e96:	681b      	ldr	r3, [r3, #0]
 8000e98:	4618      	mov	r0, r3
 8000e9a:	f000 f882 	bl	8000fa2 <I2C_ClearNACKFlag>

    /*
     * 6. Enable peripheral.
     */
    I2C_PeripheralControl(pI2CHandle->pI2Cx, ENABLE);
 8000e9e:	687b      	ldr	r3, [r7, #4]
 8000ea0:	681b      	ldr	r3, [r3, #0]
 8000ea2:	2101      	movs	r1, #1
 8000ea4:	4618      	mov	r0, r3
 8000ea6:	f000 f829 	bl	8000efc <I2C_PeripheralControl>

    /*
     * Initialize non-blocking transfer state.
     */
    pI2CHandle->pTxBuffer = 0;
 8000eaa:	687b      	ldr	r3, [r7, #4]
 8000eac:	2200      	movs	r2, #0
 8000eae:	60da      	str	r2, [r3, #12]
    pI2CHandle->pRxBuffer = 0;
 8000eb0:	687b      	ldr	r3, [r7, #4]
 8000eb2:	2200      	movs	r2, #0
 8000eb4:	611a      	str	r2, [r3, #16]
    pI2CHandle->TxLen = 0U;
 8000eb6:	687b      	ldr	r3, [r7, #4]
 8000eb8:	2200      	movs	r2, #0
 8000eba:	615a      	str	r2, [r3, #20]
    pI2CHandle->RxLen = 0U;
 8000ebc:	687b      	ldr	r3, [r7, #4]
 8000ebe:	2200      	movs	r2, #0
 8000ec0:	619a      	str	r2, [r3, #24]
    pI2CHandle->DevAddr = 0U;
 8000ec2:	687b      	ldr	r3, [r7, #4]
 8000ec4:	2200      	movs	r2, #0
 8000ec6:	839a      	strh	r2, [r3, #28]
    pI2CHandle->AddressMode = I2C_ADDR_MODE_7BIT;
 8000ec8:	687b      	ldr	r3, [r7, #4]
 8000eca:	2200      	movs	r2, #0
 8000ecc:	779a      	strb	r2, [r3, #30]
    pI2CHandle->Sr = I2C_DISABLE_SR;
 8000ece:	687b      	ldr	r3, [r7, #4]
 8000ed0:	2200      	movs	r2, #0
 8000ed2:	77da      	strb	r2, [r3, #31]
    pI2CHandle->TxRxState = I2C_READY;
 8000ed4:	687b      	ldr	r3, [r7, #4]
 8000ed6:	2200      	movs	r2, #0
 8000ed8:	f883 2020 	strb.w	r2, [r3, #32]
    pI2CHandle->XferMode = I2C_XFER_MODE_NONE;
 8000edc:	687b      	ldr	r3, [r7, #4]
 8000ede:	2200      	movs	r2, #0
 8000ee0:	f883 2022 	strb.w	r2, [r3, #34]	@ 0x22
    pI2CHandle->ErrorCode = I2C_ERROR_NONE;
 8000ee4:	687b      	ldr	r3, [r7, #4]
 8000ee6:	2200      	movs	r2, #0
 8000ee8:	f883 2021 	strb.w	r2, [r3, #33]	@ 0x21


    I2C_RegisterHandle(pI2CHandle);
 8000eec:	6878      	ldr	r0, [r7, #4]
 8000eee:	f7ff fe31 	bl	8000b54 <I2C_RegisterHandle>

    return I2C_STATUS_OK;
 8000ef2:	2300      	movs	r3, #0
}
 8000ef4:	4618      	mov	r0, r3
 8000ef6:	3710      	adds	r7, #16
 8000ef8:	46bd      	mov	sp, r7
 8000efa:	bd80      	pop	{r7, pc}

08000efc <I2C_PeripheralControl>:
    }
}


void I2C_PeripheralControl(I2C_RegDef_t *pI2Cx, uint8_t EnorDi)
{
 8000efc:	b480      	push	{r7}
 8000efe:	b083      	sub	sp, #12
 8000f00:	af00      	add	r7, sp, #0
 8000f02:	6078      	str	r0, [r7, #4]
 8000f04:	460b      	mov	r3, r1
 8000f06:	70fb      	strb	r3, [r7, #3]
    if (EnorDi == ENABLE)
 8000f08:	78fb      	ldrb	r3, [r7, #3]
 8000f0a:	2b01      	cmp	r3, #1
 8000f0c:	d106      	bne.n	8000f1c <I2C_PeripheralControl+0x20>
    {
        pI2Cx->I2C_CR1 |= (1U << I2C_CR1_PE);
 8000f0e:	687b      	ldr	r3, [r7, #4]
 8000f10:	681b      	ldr	r3, [r3, #0]
 8000f12:	f043 0201 	orr.w	r2, r3, #1
 8000f16:	687b      	ldr	r3, [r7, #4]
 8000f18:	601a      	str	r2, [r3, #0]
    }
    else
    {
        pI2Cx->I2C_CR1 &= ~(1U << I2C_CR1_PE);
    }
}
 8000f1a:	e005      	b.n	8000f28 <I2C_PeripheralControl+0x2c>
        pI2Cx->I2C_CR1 &= ~(1U << I2C_CR1_PE);
 8000f1c:	687b      	ldr	r3, [r7, #4]
 8000f1e:	681b      	ldr	r3, [r3, #0]
 8000f20:	f023 0201 	bic.w	r2, r3, #1
 8000f24:	687b      	ldr	r3, [r7, #4]
 8000f26:	601a      	str	r2, [r3, #0]
}
 8000f28:	bf00      	nop
 8000f2a:	370c      	adds	r7, #12
 8000f2c:	46bd      	mov	sp, r7
 8000f2e:	f85d 7b04 	ldr.w	r7, [sp], #4
 8000f32:	4770      	bx	lr

08000f34 <I2C_GetFlagStatus>:


uint8_t I2C_GetFlagStatus(I2C_RegDef_t *pI2Cx, uint32_t FlagName)
{
 8000f34:	b480      	push	{r7}
 8000f36:	b083      	sub	sp, #12
 8000f38:	af00      	add	r7, sp, #0
 8000f3a:	6078      	str	r0, [r7, #4]
 8000f3c:	6039      	str	r1, [r7, #0]
    if (pI2Cx->I2C_ISR & FlagName)
 8000f3e:	687b      	ldr	r3, [r7, #4]
 8000f40:	699a      	ldr	r2, [r3, #24]
 8000f42:	683b      	ldr	r3, [r7, #0]
 8000f44:	4013      	ands	r3, r2
 8000f46:	2b00      	cmp	r3, #0
 8000f48:	d001      	beq.n	8000f4e <I2C_GetFlagStatus+0x1a>
    {
        return SET;
 8000f4a:	2301      	movs	r3, #1
 8000f4c:	e000      	b.n	8000f50 <I2C_GetFlagStatus+0x1c>
    }

    return RESET;
 8000f4e:	2300      	movs	r3, #0
}
 8000f50:	4618      	mov	r0, r3
 8000f52:	370c      	adds	r7, #12
 8000f54:	46bd      	mov	sp, r7
 8000f56:	f85d 7b04 	ldr.w	r7, [sp], #4
 8000f5a:	4770      	bx	lr

08000f5c <I2C_ClearErrorFlags>:
    return error_status;
}


void I2C_ClearErrorFlags(I2C_RegDef_t *pI2Cx)
{
 8000f5c:	b480      	push	{r7}
 8000f5e:	b083      	sub	sp, #12
 8000f60:	af00      	add	r7, sp, #0
 8000f62:	6078      	str	r0, [r7, #4]
    if (pI2Cx == 0)
 8000f64:	687b      	ldr	r3, [r7, #4]
 8000f66:	2b00      	cmp	r3, #0
 8000f68:	d004      	beq.n	8000f74 <I2C_ClearErrorFlags+0x18>
    }

    /*
     * ICR register clears flags by writing 1 to corresponding clear bits.
     */
    pI2Cx->I2C_ICR = ((1U << I2C_ICR_BERRCF)   |
 8000f6a:	687b      	ldr	r3, [r7, #4]
 8000f6c:	f44f 52b8 	mov.w	r2, #5888	@ 0x1700
 8000f70:	61da      	str	r2, [r3, #28]
 8000f72:	e000      	b.n	8000f76 <I2C_ClearErrorFlags+0x1a>
        return;
 8000f74:	bf00      	nop
                      (1U << I2C_ICR_ARLOCF)   |
                      (1U << I2C_ICR_OVRCF)    |
                      (1U << I2C_ICR_TIMOUTCF));
}
 8000f76:	370c      	adds	r7, #12
 8000f78:	46bd      	mov	sp, r7
 8000f7a:	f85d 7b04 	ldr.w	r7, [sp], #4
 8000f7e:	4770      	bx	lr

08000f80 <I2C_ClearSTOPFlag>:


void I2C_ClearSTOPFlag(I2C_RegDef_t *pI2Cx)
{
 8000f80:	b480      	push	{r7}
 8000f82:	b083      	sub	sp, #12
 8000f84:	af00      	add	r7, sp, #0
 8000f86:	6078      	str	r0, [r7, #4]
    if (pI2Cx == 0)
 8000f88:	687b      	ldr	r3, [r7, #4]
 8000f8a:	2b00      	cmp	r3, #0
 8000f8c:	d003      	beq.n	8000f96 <I2C_ClearSTOPFlag+0x16>
    {
        return;
    }

    pI2Cx->I2C_ICR = (1U << I2C_ICR_STOPCF);
 8000f8e:	687b      	ldr	r3, [r7, #4]
 8000f90:	2220      	movs	r2, #32
 8000f92:	61da      	str	r2, [r3, #28]
 8000f94:	e000      	b.n	8000f98 <I2C_ClearSTOPFlag+0x18>
        return;
 8000f96:	bf00      	nop
}
 8000f98:	370c      	adds	r7, #12
 8000f9a:	46bd      	mov	sp, r7
 8000f9c:	f85d 7b04 	ldr.w	r7, [sp], #4
 8000fa0:	4770      	bx	lr

08000fa2 <I2C_ClearNACKFlag>:


void I2C_ClearNACKFlag(I2C_RegDef_t *pI2Cx)
{
 8000fa2:	b480      	push	{r7}
 8000fa4:	b083      	sub	sp, #12
 8000fa6:	af00      	add	r7, sp, #0
 8000fa8:	6078      	str	r0, [r7, #4]
    if (pI2Cx == 0)
 8000faa:	687b      	ldr	r3, [r7, #4]
 8000fac:	2b00      	cmp	r3, #0
 8000fae:	d003      	beq.n	8000fb8 <I2C_ClearNACKFlag+0x16>
    {
        return;
    }

    pI2Cx->I2C_ICR = (1U << I2C_ICR_NACKCF);
 8000fb0:	687b      	ldr	r3, [r7, #4]
 8000fb2:	2210      	movs	r2, #16
 8000fb4:	61da      	str	r2, [r3, #28]
 8000fb6:	e000      	b.n	8000fba <I2C_ClearNACKFlag+0x18>
        return;
 8000fb8:	bf00      	nop
}
 8000fba:	370c      	adds	r7, #12
 8000fbc:	46bd      	mov	sp, r7
 8000fbe:	f85d 7b04 	ldr.w	r7, [sp], #4
 8000fc2:	4770      	bx	lr

08000fc4 <I2C_CloseSendData>:
            return I2C_STATUS_TIMEOUT;
        }
    }
}
void I2C_CloseSendData(I2C_Handle_t *pI2CHandle)
{
 8000fc4:	b480      	push	{r7}
 8000fc6:	b083      	sub	sp, #12
 8000fc8:	af00      	add	r7, sp, #0
 8000fca:	6078      	str	r0, [r7, #4]
    if (pI2CHandle == 0)
 8000fcc:	687b      	ldr	r3, [r7, #4]
 8000fce:	2b00      	cmp	r3, #0
 8000fd0:	d044      	beq.n	800105c <I2C_CloseSendData+0x98>
    {
        return;
    }

    pI2CHandle->pI2Cx->I2C_CR1 &= ~(1U << I2C_CR1_TXIE);
 8000fd2:	687b      	ldr	r3, [r7, #4]
 8000fd4:	681b      	ldr	r3, [r3, #0]
 8000fd6:	681a      	ldr	r2, [r3, #0]
 8000fd8:	687b      	ldr	r3, [r7, #4]
 8000fda:	681b      	ldr	r3, [r3, #0]
 8000fdc:	f022 0202 	bic.w	r2, r2, #2
 8000fe0:	601a      	str	r2, [r3, #0]
    pI2CHandle->pI2Cx->I2C_CR1 &= ~(1U << I2C_CR1_RXIE);
 8000fe2:	687b      	ldr	r3, [r7, #4]
 8000fe4:	681b      	ldr	r3, [r3, #0]
 8000fe6:	681a      	ldr	r2, [r3, #0]
 8000fe8:	687b      	ldr	r3, [r7, #4]
 8000fea:	681b      	ldr	r3, [r3, #0]
 8000fec:	f022 0204 	bic.w	r2, r2, #4
 8000ff0:	601a      	str	r2, [r3, #0]
    pI2CHandle->pI2Cx->I2C_CR1 &= ~(1U << I2C_CR1_TCIE);
 8000ff2:	687b      	ldr	r3, [r7, #4]
 8000ff4:	681b      	ldr	r3, [r3, #0]
 8000ff6:	681a      	ldr	r2, [r3, #0]
 8000ff8:	687b      	ldr	r3, [r7, #4]
 8000ffa:	681b      	ldr	r3, [r3, #0]
 8000ffc:	f022 0240 	bic.w	r2, r2, #64	@ 0x40
 8001000:	601a      	str	r2, [r3, #0]
    pI2CHandle->pI2Cx->I2C_CR1 &= ~(1U << I2C_CR1_STOPIE);
 8001002:	687b      	ldr	r3, [r7, #4]
 8001004:	681b      	ldr	r3, [r3, #0]
 8001006:	681a      	ldr	r2, [r3, #0]
 8001008:	687b      	ldr	r3, [r7, #4]
 800100a:	681b      	ldr	r3, [r3, #0]
 800100c:	f022 0220 	bic.w	r2, r2, #32
 8001010:	601a      	str	r2, [r3, #0]
    pI2CHandle->pI2Cx->I2C_CR1 &= ~(1U << I2C_CR1_NACKIE);
 8001012:	687b      	ldr	r3, [r7, #4]
 8001014:	681b      	ldr	r3, [r3, #0]
 8001016:	681a      	ldr	r2, [r3, #0]
 8001018:	687b      	ldr	r3, [r7, #4]
 800101a:	681b      	ldr	r3, [r3, #0]
 800101c:	f022 0210 	bic.w	r2, r2, #16
 8001020:	601a      	str	r2, [r3, #0]
    pI2CHandle->pI2Cx->I2C_CR1 &= ~(1U << I2C_CR1_ERRIE);
 8001022:	687b      	ldr	r3, [r7, #4]
 8001024:	681b      	ldr	r3, [r3, #0]
 8001026:	681a      	ldr	r2, [r3, #0]
 8001028:	687b      	ldr	r3, [r7, #4]
 800102a:	681b      	ldr	r3, [r3, #0]
 800102c:	f022 0280 	bic.w	r2, r2, #128	@ 0x80
 8001030:	601a      	str	r2, [r3, #0]

    pI2CHandle->pTxBuffer = 0;
 8001032:	687b      	ldr	r3, [r7, #4]
 8001034:	2200      	movs	r2, #0
 8001036:	60da      	str	r2, [r3, #12]
    pI2CHandle->pRxBuffer = 0;
 8001038:	687b      	ldr	r3, [r7, #4]
 800103a:	2200      	movs	r2, #0
 800103c:	611a      	str	r2, [r3, #16]
    pI2CHandle->TxLen = 0U;
 800103e:	687b      	ldr	r3, [r7, #4]
 8001040:	2200      	movs	r2, #0
 8001042:	615a      	str	r2, [r3, #20]
    pI2CHandle->RxLen = 0U;
 8001044:	687b      	ldr	r3, [r7, #4]
 8001046:	2200      	movs	r2, #0
 8001048:	619a      	str	r2, [r3, #24]
    pI2CHandle->TxRxState = I2C_READY;
 800104a:	687b      	ldr	r3, [r7, #4]
 800104c:	2200      	movs	r2, #0
 800104e:	f883 2020 	strb.w	r2, [r3, #32]
    pI2CHandle->XferMode = I2C_XFER_MODE_NONE;
 8001052:	687b      	ldr	r3, [r7, #4]
 8001054:	2200      	movs	r2, #0
 8001056:	f883 2022 	strb.w	r2, [r3, #34]	@ 0x22
 800105a:	e000      	b.n	800105e <I2C_CloseSendData+0x9a>
        return;
 800105c:	bf00      	nop
}
 800105e:	370c      	adds	r7, #12
 8001060:	46bd      	mov	sp, r7
 8001062:	f85d 7b04 	ldr.w	r7, [sp], #4
 8001066:	4770      	bx	lr

08001068 <I2C_CloseReceiveData>:

void I2C_CloseReceiveData(I2C_Handle_t *pI2CHandle)
{
 8001068:	b480      	push	{r7}
 800106a:	b083      	sub	sp, #12
 800106c:	af00      	add	r7, sp, #0
 800106e:	6078      	str	r0, [r7, #4]
    if (pI2CHandle == 0)
 8001070:	687b      	ldr	r3, [r7, #4]
 8001072:	2b00      	cmp	r3, #0
 8001074:	d044      	beq.n	8001100 <I2C_CloseReceiveData+0x98>
    {
        return;
    }

    pI2CHandle->pI2Cx->I2C_CR1 &= ~(1U << I2C_CR1_TXIE);
 8001076:	687b      	ldr	r3, [r7, #4]
 8001078:	681b      	ldr	r3, [r3, #0]
 800107a:	681a      	ldr	r2, [r3, #0]
 800107c:	687b      	ldr	r3, [r7, #4]
 800107e:	681b      	ldr	r3, [r3, #0]
 8001080:	f022 0202 	bic.w	r2, r2, #2
 8001084:	601a      	str	r2, [r3, #0]
    pI2CHandle->pI2Cx->I2C_CR1 &= ~(1U << I2C_CR1_RXIE);
 8001086:	687b      	ldr	r3, [r7, #4]
 8001088:	681b      	ldr	r3, [r3, #0]
 800108a:	681a      	ldr	r2, [r3, #0]
 800108c:	687b      	ldr	r3, [r7, #4]
 800108e:	681b      	ldr	r3, [r3, #0]
 8001090:	f022 0204 	bic.w	r2, r2, #4
 8001094:	601a      	str	r2, [r3, #0]
    pI2CHandle->pI2Cx->I2C_CR1 &= ~(1U << I2C_CR1_TCIE);
 8001096:	687b      	ldr	r3, [r7, #4]
 8001098:	681b      	ldr	r3, [r3, #0]
 800109a:	681a      	ldr	r2, [r3, #0]
 800109c:	687b      	ldr	r3, [r7, #4]
 800109e:	681b      	ldr	r3, [r3, #0]
 80010a0:	f022 0240 	bic.w	r2, r2, #64	@ 0x40
 80010a4:	601a      	str	r2, [r3, #0]
    pI2CHandle->pI2Cx->I2C_CR1 &= ~(1U << I2C_CR1_STOPIE);
 80010a6:	687b      	ldr	r3, [r7, #4]
 80010a8:	681b      	ldr	r3, [r3, #0]
 80010aa:	681a      	ldr	r2, [r3, #0]
 80010ac:	687b      	ldr	r3, [r7, #4]
 80010ae:	681b      	ldr	r3, [r3, #0]
 80010b0:	f022 0220 	bic.w	r2, r2, #32
 80010b4:	601a      	str	r2, [r3, #0]
    pI2CHandle->pI2Cx->I2C_CR1 &= ~(1U << I2C_CR1_NACKIE);
 80010b6:	687b      	ldr	r3, [r7, #4]
 80010b8:	681b      	ldr	r3, [r3, #0]
 80010ba:	681a      	ldr	r2, [r3, #0]
 80010bc:	687b      	ldr	r3, [r7, #4]
 80010be:	681b      	ldr	r3, [r3, #0]
 80010c0:	f022 0210 	bic.w	r2, r2, #16
 80010c4:	601a      	str	r2, [r3, #0]
    pI2CHandle->pI2Cx->I2C_CR1 &= ~(1U << I2C_CR1_ERRIE);
 80010c6:	687b      	ldr	r3, [r7, #4]
 80010c8:	681b      	ldr	r3, [r3, #0]
 80010ca:	681a      	ldr	r2, [r3, #0]
 80010cc:	687b      	ldr	r3, [r7, #4]
 80010ce:	681b      	ldr	r3, [r3, #0]
 80010d0:	f022 0280 	bic.w	r2, r2, #128	@ 0x80
 80010d4:	601a      	str	r2, [r3, #0]

    pI2CHandle->pTxBuffer = 0;
 80010d6:	687b      	ldr	r3, [r7, #4]
 80010d8:	2200      	movs	r2, #0
 80010da:	60da      	str	r2, [r3, #12]
    pI2CHandle->pRxBuffer = 0;
 80010dc:	687b      	ldr	r3, [r7, #4]
 80010de:	2200      	movs	r2, #0
 80010e0:	611a      	str	r2, [r3, #16]
    pI2CHandle->TxLen = 0U;
 80010e2:	687b      	ldr	r3, [r7, #4]
 80010e4:	2200      	movs	r2, #0
 80010e6:	615a      	str	r2, [r3, #20]
    pI2CHandle->RxLen = 0U;
 80010e8:	687b      	ldr	r3, [r7, #4]
 80010ea:	2200      	movs	r2, #0
 80010ec:	619a      	str	r2, [r3, #24]
    pI2CHandle->TxRxState = I2C_READY;
 80010ee:	687b      	ldr	r3, [r7, #4]
 80010f0:	2200      	movs	r2, #0
 80010f2:	f883 2020 	strb.w	r2, [r3, #32]
    pI2CHandle->XferMode = I2C_XFER_MODE_NONE;
 80010f6:	687b      	ldr	r3, [r7, #4]
 80010f8:	2200      	movs	r2, #0
 80010fa:	f883 2022 	strb.w	r2, [r3, #34]	@ 0x22
 80010fe:	e000      	b.n	8001102 <I2C_CloseReceiveData+0x9a>
        return;
 8001100:	bf00      	nop
}
 8001102:	370c      	adds	r7, #12
 8001104:	46bd      	mov	sp, r7
 8001106:	f85d 7b04 	ldr.w	r7, [sp], #4
 800110a:	4770      	bx	lr

0800110c <I2C_MasterWriteReadIT>:
    pI2Cx->I2C_CR2 = (cr2 | (1U << I2C_CR2_START));

    return I2C_STATUS_OK;
}
uint8_t I2C_MasterWriteReadIT(I2C_Handle_t *pI2CHandle, uint16_t SlaveAddr,uint8_t AddressMode, uint8_t *pTxBuffer, uint32_t TxLen,uint8_t *pRxBuffer, uint32_t RxLen)
{
 800110c:	b580      	push	{r7, lr}
 800110e:	b088      	sub	sp, #32
 8001110:	af02      	add	r7, sp, #8
 8001112:	60f8      	str	r0, [r7, #12]
 8001114:	607b      	str	r3, [r7, #4]
 8001116:	460b      	mov	r3, r1
 8001118:	817b      	strh	r3, [r7, #10]
 800111a:	4613      	mov	r3, r2
 800111c:	727b      	strb	r3, [r7, #9]
    uint32_t cr2;
    I2C_RegDef_t *pI2Cx;

    if ((pI2CHandle == 0) || (pI2CHandle->pI2Cx == 0) ||
 800111e:	68fb      	ldr	r3, [r7, #12]
 8001120:	2b00      	cmp	r3, #0
 8001122:	d00f      	beq.n	8001144 <I2C_MasterWriteReadIT+0x38>
 8001124:	68fb      	ldr	r3, [r7, #12]
 8001126:	681b      	ldr	r3, [r3, #0]
 8001128:	2b00      	cmp	r3, #0
 800112a:	d00b      	beq.n	8001144 <I2C_MasterWriteReadIT+0x38>
 800112c:	687b      	ldr	r3, [r7, #4]
 800112e:	2b00      	cmp	r3, #0
 8001130:	d008      	beq.n	8001144 <I2C_MasterWriteReadIT+0x38>
        (pTxBuffer == 0) || (pRxBuffer == 0) ||
 8001132:	6a7b      	ldr	r3, [r7, #36]	@ 0x24
 8001134:	2b00      	cmp	r3, #0
 8001136:	d005      	beq.n	8001144 <I2C_MasterWriteReadIT+0x38>
 8001138:	6a3b      	ldr	r3, [r7, #32]
 800113a:	2b00      	cmp	r3, #0
 800113c:	d002      	beq.n	8001144 <I2C_MasterWriteReadIT+0x38>
        (TxLen == 0U) || (RxLen == 0U))
 800113e:	6abb      	ldr	r3, [r7, #40]	@ 0x28
 8001140:	2b00      	cmp	r3, #0
 8001142:	d101      	bne.n	8001148 <I2C_MasterWriteReadIT+0x3c>
    {
        return I2C_STATUS_ERROR;
 8001144:	2302      	movs	r3, #2
 8001146:	e07d      	b.n	8001244 <I2C_MasterWriteReadIT+0x138>
    }

    if ((TxLen > 255U) || (RxLen > 255U))
 8001148:	6a3b      	ldr	r3, [r7, #32]
 800114a:	2bff      	cmp	r3, #255	@ 0xff
 800114c:	d802      	bhi.n	8001154 <I2C_MasterWriteReadIT+0x48>
 800114e:	6abb      	ldr	r3, [r7, #40]	@ 0x28
 8001150:	2bff      	cmp	r3, #255	@ 0xff
 8001152:	d901      	bls.n	8001158 <I2C_MasterWriteReadIT+0x4c>
    {
        return I2C_STATUS_UNSUPPORTED;
 8001154:	230a      	movs	r3, #10
 8001156:	e075      	b.n	8001244 <I2C_MasterWriteReadIT+0x138>
    }

    if (AddressMode != I2C_ADDR_MODE_7BIT)
 8001158:	7a7b      	ldrb	r3, [r7, #9]
 800115a:	2b00      	cmp	r3, #0
 800115c:	d001      	beq.n	8001162 <I2C_MasterWriteReadIT+0x56>
    {
        return I2C_STATUS_UNSUPPORTED;
 800115e:	230a      	movs	r3, #10
 8001160:	e070      	b.n	8001244 <I2C_MasterWriteReadIT+0x138>
    }

    if (pI2CHandle->TxRxState != I2C_READY)
 8001162:	68fb      	ldr	r3, [r7, #12]
 8001164:	f893 3020 	ldrb.w	r3, [r3, #32]
 8001168:	b2db      	uxtb	r3, r3
 800116a:	2b00      	cmp	r3, #0
 800116c:	d001      	beq.n	8001172 <I2C_MasterWriteReadIT+0x66>
    {
        return I2C_STATUS_BUSY;
 800116e:	2309      	movs	r3, #9
 8001170:	e068      	b.n	8001244 <I2C_MasterWriteReadIT+0x138>
    }

    pI2Cx = pI2CHandle->pI2Cx;
 8001172:	68fb      	ldr	r3, [r7, #12]
 8001174:	681b      	ldr	r3, [r3, #0]
 8001176:	617b      	str	r3, [r7, #20]

    if (I2C_GetFlagStatus(pI2Cx, I2C_FLAG_BUSY) == SET)
 8001178:	f44f 4100 	mov.w	r1, #32768	@ 0x8000
 800117c:	6978      	ldr	r0, [r7, #20]
 800117e:	f7ff fed9 	bl	8000f34 <I2C_GetFlagStatus>
 8001182:	4603      	mov	r3, r0
 8001184:	2b01      	cmp	r3, #1
 8001186:	d101      	bne.n	800118c <I2C_MasterWriteReadIT+0x80>
    {
        return I2C_STATUS_BUSY;
 8001188:	2309      	movs	r3, #9
 800118a:	e05b      	b.n	8001244 <I2C_MasterWriteReadIT+0x138>

    /*
     * First phase: WRITE with AUTOEND disabled.
     * This will create TC after TxLen bytes, not STOP.
     */
    cr2 = I2C_PrepareCR2(SlaveAddr,
 800118c:	7a79      	ldrb	r1, [r7, #9]
 800118e:	8978      	ldrh	r0, [r7, #10]
 8001190:	2301      	movs	r3, #1
 8001192:	9300      	str	r3, [sp, #0]
 8001194:	6a3b      	ldr	r3, [r7, #32]
 8001196:	2200      	movs	r2, #0
 8001198:	f7ff fd52 	bl	8000c40 <I2C_PrepareCR2>
 800119c:	6138      	str	r0, [r7, #16]
                         AddressMode,
                         I2C_TRANSFER_WRITE,
                         TxLen,
                         I2C_ENABLE_SR);

    if (cr2 == 0U)
 800119e:	693b      	ldr	r3, [r7, #16]
 80011a0:	2b00      	cmp	r3, #0
 80011a2:	d101      	bne.n	80011a8 <I2C_MasterWriteReadIT+0x9c>
    {
        return I2C_STATUS_ERROR;
 80011a4:	2302      	movs	r3, #2
 80011a6:	e04d      	b.n	8001244 <I2C_MasterWriteReadIT+0x138>
    }

    pI2CHandle->pTxBuffer = pTxBuffer;
 80011a8:	68fb      	ldr	r3, [r7, #12]
 80011aa:	687a      	ldr	r2, [r7, #4]
 80011ac:	60da      	str	r2, [r3, #12]
    pI2CHandle->pRxBuffer = pRxBuffer;
 80011ae:	68fb      	ldr	r3, [r7, #12]
 80011b0:	6a7a      	ldr	r2, [r7, #36]	@ 0x24
 80011b2:	611a      	str	r2, [r3, #16]
    pI2CHandle->TxLen = TxLen;
 80011b4:	68fb      	ldr	r3, [r7, #12]
 80011b6:	6a3a      	ldr	r2, [r7, #32]
 80011b8:	615a      	str	r2, [r3, #20]
    pI2CHandle->RxLen = RxLen;
 80011ba:	68fb      	ldr	r3, [r7, #12]
 80011bc:	6aba      	ldr	r2, [r7, #40]	@ 0x28
 80011be:	619a      	str	r2, [r3, #24]
    pI2CHandle->DevAddr = SlaveAddr;
 80011c0:	68fb      	ldr	r3, [r7, #12]
 80011c2:	897a      	ldrh	r2, [r7, #10]
 80011c4:	839a      	strh	r2, [r3, #28]
    pI2CHandle->AddressMode = AddressMode;
 80011c6:	68fb      	ldr	r3, [r7, #12]
 80011c8:	7a7a      	ldrb	r2, [r7, #9]
 80011ca:	779a      	strb	r2, [r3, #30]

    /*
     * First phase is TX, final operation is write-read.
     */
    pI2CHandle->Sr = I2C_ENABLE_SR;
 80011cc:	68fb      	ldr	r3, [r7, #12]
 80011ce:	2201      	movs	r2, #1
 80011d0:	77da      	strb	r2, [r3, #31]
    pI2CHandle->TxRxState = I2C_BUSY_IN_TX;
 80011d2:	68fb      	ldr	r3, [r7, #12]
 80011d4:	2201      	movs	r2, #1
 80011d6:	f883 2020 	strb.w	r2, [r3, #32]
    pI2CHandle->XferMode = I2C_XFER_MODE_WRITE_READ;
 80011da:	68fb      	ldr	r3, [r7, #12]
 80011dc:	2203      	movs	r2, #3
 80011de:	f883 2022 	strb.w	r2, [r3, #34]	@ 0x22
    pI2CHandle->ErrorCode = I2C_ERROR_NONE;
 80011e2:	68fb      	ldr	r3, [r7, #12]
 80011e4:	2200      	movs	r2, #0
 80011e6:	f883 2021 	strb.w	r2, [r3, #33]	@ 0x21

    I2C_ClearNACKFlag(pI2Cx);
 80011ea:	6978      	ldr	r0, [r7, #20]
 80011ec:	f7ff fed9 	bl	8000fa2 <I2C_ClearNACKFlag>
    I2C_ClearSTOPFlag(pI2Cx);
 80011f0:	6978      	ldr	r0, [r7, #20]
 80011f2:	f7ff fec5 	bl	8000f80 <I2C_ClearSTOPFlag>
    I2C_ClearErrorFlags(pI2Cx);
 80011f6:	6978      	ldr	r0, [r7, #20]
 80011f8:	f7ff feb0 	bl	8000f5c <I2C_ClearErrorFlags>

    /*
     * Enable interrupts before START.
     * RXIE will be enabled later when repeated-start read phase begins.
     */
    pI2Cx->I2C_CR1 |= (1U << I2C_CR1_TXIE);
 80011fc:	697b      	ldr	r3, [r7, #20]
 80011fe:	681b      	ldr	r3, [r3, #0]
 8001200:	f043 0202 	orr.w	r2, r3, #2
 8001204:	697b      	ldr	r3, [r7, #20]
 8001206:	601a      	str	r2, [r3, #0]
    pI2Cx->I2C_CR1 |= (1U << I2C_CR1_TCIE);
 8001208:	697b      	ldr	r3, [r7, #20]
 800120a:	681b      	ldr	r3, [r3, #0]
 800120c:	f043 0240 	orr.w	r2, r3, #64	@ 0x40
 8001210:	697b      	ldr	r3, [r7, #20]
 8001212:	601a      	str	r2, [r3, #0]
    pI2Cx->I2C_CR1 |= (1U << I2C_CR1_STOPIE);
 8001214:	697b      	ldr	r3, [r7, #20]
 8001216:	681b      	ldr	r3, [r3, #0]
 8001218:	f043 0220 	orr.w	r2, r3, #32
 800121c:	697b      	ldr	r3, [r7, #20]
 800121e:	601a      	str	r2, [r3, #0]
    pI2Cx->I2C_CR1 |= (1U << I2C_CR1_NACKIE);
 8001220:	697b      	ldr	r3, [r7, #20]
 8001222:	681b      	ldr	r3, [r3, #0]
 8001224:	f043 0210 	orr.w	r2, r3, #16
 8001228:	697b      	ldr	r3, [r7, #20]
 800122a:	601a      	str	r2, [r3, #0]
    pI2Cx->I2C_CR1 |= (1U << I2C_CR1_ERRIE);
 800122c:	697b      	ldr	r3, [r7, #20]
 800122e:	681b      	ldr	r3, [r3, #0]
 8001230:	f043 0280 	orr.w	r2, r3, #128	@ 0x80
 8001234:	697b      	ldr	r3, [r7, #20]
 8001236:	601a      	str	r2, [r3, #0]

    /*
     * Configure write phase and generate START.
     */
    pI2Cx->I2C_CR2 = (cr2 | (1U << I2C_CR2_START));
 8001238:	693b      	ldr	r3, [r7, #16]
 800123a:	f443 5200 	orr.w	r2, r3, #8192	@ 0x2000
 800123e:	697b      	ldr	r3, [r7, #20]
 8001240:	605a      	str	r2, [r3, #4]

    return I2C_STATUS_OK;
 8001242:	2300      	movs	r3, #0
}
 8001244:	4618      	mov	r0, r3
 8001246:	3718      	adds	r7, #24
 8001248:	46bd      	mov	sp, r7
 800124a:	bd80      	pop	{r7, pc}

0800124c <I2C_EV_IRQHandling>:

void I2C_EV_IRQHandling(I2C_RegDef_t *pI2Cx)
{
 800124c:	b580      	push	{r7, lr}
 800124e:	b086      	sub	sp, #24
 8001250:	af00      	add	r7, sp, #0
 8001252:	6078      	str	r0, [r7, #4]
    I2C_Handle_t *pI2CHandle;
    uint32_t isr;
    uint32_t cr1;

    pI2CHandle = I2C_GetHandleFromInstance(pI2Cx);
 8001254:	6878      	ldr	r0, [r7, #4]
 8001256:	f7ff fcbb 	bl	8000bd0 <I2C_GetHandleFromInstance>
 800125a:	6178      	str	r0, [r7, #20]

    if (pI2CHandle == 0)
 800125c:	697b      	ldr	r3, [r7, #20]
 800125e:	2b00      	cmp	r3, #0
 8001260:	f000 8102 	beq.w	8001468 <I2C_EV_IRQHandling+0x21c>
    {
        return;
    }

    isr = pI2Cx->I2C_ISR;
 8001264:	687b      	ldr	r3, [r7, #4]
 8001266:	699b      	ldr	r3, [r3, #24]
 8001268:	613b      	str	r3, [r7, #16]
    cr1 = pI2Cx->I2C_CR1;
 800126a:	687b      	ldr	r3, [r7, #4]
 800126c:	681b      	ldr	r3, [r3, #0]
 800126e:	60fb      	str	r3, [r7, #12]

    /*
     * NACK received.
     */
    if ((isr & I2C_FLAG_NACKF) && (cr1 & (1U << I2C_CR1_NACKIE)))
 8001270:	693b      	ldr	r3, [r7, #16]
 8001272:	f003 0310 	and.w	r3, r3, #16
 8001276:	2b00      	cmp	r3, #0
 8001278:	d033      	beq.n	80012e2 <I2C_EV_IRQHandling+0x96>
 800127a:	68fb      	ldr	r3, [r7, #12]
 800127c:	f003 0310 	and.w	r3, r3, #16
 8001280:	2b00      	cmp	r3, #0
 8001282:	d02e      	beq.n	80012e2 <I2C_EV_IRQHandling+0x96>
    {
        I2C_ClearNACKFlag(pI2Cx);
 8001284:	6878      	ldr	r0, [r7, #4]
 8001286:	f7ff fe8c 	bl	8000fa2 <I2C_ClearNACKFlag>

        if (I2C_GetFlagStatus(pI2Cx, I2C_FLAG_STOPF) == SET)
 800128a:	2120      	movs	r1, #32
 800128c:	6878      	ldr	r0, [r7, #4]
 800128e:	f7ff fe51 	bl	8000f34 <I2C_GetFlagStatus>
 8001292:	4603      	mov	r3, r0
 8001294:	2b01      	cmp	r3, #1
 8001296:	d102      	bne.n	800129e <I2C_EV_IRQHandling+0x52>
        {
            I2C_ClearSTOPFlag(pI2Cx);
 8001298:	6878      	ldr	r0, [r7, #4]
 800129a:	f7ff fe71 	bl	8000f80 <I2C_ClearSTOPFlag>
        }

        pI2CHandle->ErrorCode |= I2C_ERROR_NACK;
 800129e:	697b      	ldr	r3, [r7, #20]
 80012a0:	f893 3021 	ldrb.w	r3, [r3, #33]	@ 0x21
 80012a4:	b2db      	uxtb	r3, r3
 80012a6:	f043 0310 	orr.w	r3, r3, #16
 80012aa:	b2da      	uxtb	r2, r3
 80012ac:	697b      	ldr	r3, [r7, #20]
 80012ae:	f883 2021 	strb.w	r2, [r3, #33]	@ 0x21

        if (pI2CHandle->TxRxState == I2C_BUSY_IN_TX)
 80012b2:	697b      	ldr	r3, [r7, #20]
 80012b4:	f893 3020 	ldrb.w	r3, [r3, #32]
 80012b8:	b2db      	uxtb	r3, r3
 80012ba:	2b01      	cmp	r3, #1
 80012bc:	d103      	bne.n	80012c6 <I2C_EV_IRQHandling+0x7a>
        {
            I2C_CloseSendData(pI2CHandle);
 80012be:	6978      	ldr	r0, [r7, #20]
 80012c0:	f7ff fe80 	bl	8000fc4 <I2C_CloseSendData>
 80012c4:	e008      	b.n	80012d8 <I2C_EV_IRQHandling+0x8c>
        }
        else if (pI2CHandle->TxRxState == I2C_BUSY_IN_RX)
 80012c6:	697b      	ldr	r3, [r7, #20]
 80012c8:	f893 3020 	ldrb.w	r3, [r3, #32]
 80012cc:	b2db      	uxtb	r3, r3
 80012ce:	2b02      	cmp	r3, #2
 80012d0:	d102      	bne.n	80012d8 <I2C_EV_IRQHandling+0x8c>
        {
            I2C_CloseReceiveData(pI2CHandle);
 80012d2:	6978      	ldr	r0, [r7, #20]
 80012d4:	f7ff fec8 	bl	8001068 <I2C_CloseReceiveData>
        }

        I2C_ApplicationEventCallback(pI2CHandle, I2C_EVENT_NACK);
 80012d8:	2103      	movs	r1, #3
 80012da:	6978      	ldr	r0, [r7, #20]
 80012dc:	f000 ff1c 	bl	8002118 <I2C_ApplicationEventCallback>
        return;
 80012e0:	e0c3      	b.n	800146a <I2C_EV_IRQHandling+0x21e>
    }

    /*
     * TXIS: transmit data register empty and ready.
     */
    if ((isr & I2C_FLAG_TXIS) && (cr1 & (1U << I2C_CR1_TXIE)))
 80012e2:	693b      	ldr	r3, [r7, #16]
 80012e4:	f003 0302 	and.w	r3, r3, #2
 80012e8:	2b00      	cmp	r3, #0
 80012ea:	d01e      	beq.n	800132a <I2C_EV_IRQHandling+0xde>
 80012ec:	68fb      	ldr	r3, [r7, #12]
 80012ee:	f003 0302 	and.w	r3, r3, #2
 80012f2:	2b00      	cmp	r3, #0
 80012f4:	d019      	beq.n	800132a <I2C_EV_IRQHandling+0xde>
    {
        if ((pI2CHandle->TxRxState == I2C_BUSY_IN_TX) &&
 80012f6:	697b      	ldr	r3, [r7, #20]
 80012f8:	f893 3020 	ldrb.w	r3, [r3, #32]
 80012fc:	b2db      	uxtb	r3, r3
 80012fe:	2b01      	cmp	r3, #1
 8001300:	d113      	bne.n	800132a <I2C_EV_IRQHandling+0xde>
            (pI2CHandle->TxLen > 0U))
 8001302:	697b      	ldr	r3, [r7, #20]
 8001304:	695b      	ldr	r3, [r3, #20]
        if ((pI2CHandle->TxRxState == I2C_BUSY_IN_TX) &&
 8001306:	2b00      	cmp	r3, #0
 8001308:	d00f      	beq.n	800132a <I2C_EV_IRQHandling+0xde>
        {
            pI2Cx->I2C_TXDR = *(pI2CHandle->pTxBuffer);
 800130a:	697b      	ldr	r3, [r7, #20]
 800130c:	68db      	ldr	r3, [r3, #12]
 800130e:	781b      	ldrb	r3, [r3, #0]
 8001310:	461a      	mov	r2, r3
 8001312:	687b      	ldr	r3, [r7, #4]
 8001314:	629a      	str	r2, [r3, #40]	@ 0x28
            pI2CHandle->pTxBuffer++;
 8001316:	697b      	ldr	r3, [r7, #20]
 8001318:	68db      	ldr	r3, [r3, #12]
 800131a:	1c5a      	adds	r2, r3, #1
 800131c:	697b      	ldr	r3, [r7, #20]
 800131e:	60da      	str	r2, [r3, #12]
            pI2CHandle->TxLen--;
 8001320:	697b      	ldr	r3, [r7, #20]
 8001322:	695b      	ldr	r3, [r3, #20]
 8001324:	1e5a      	subs	r2, r3, #1
 8001326:	697b      	ldr	r3, [r7, #20]
 8001328:	615a      	str	r2, [r3, #20]
    }

    /*
     * RXNE: received data available.
     */
    if ((isr & I2C_FLAG_RXNE) && (cr1 & (1U << I2C_CR1_RXIE)))
 800132a:	693b      	ldr	r3, [r7, #16]
 800132c:	f003 0304 	and.w	r3, r3, #4
 8001330:	2b00      	cmp	r3, #0
 8001332:	d01e      	beq.n	8001372 <I2C_EV_IRQHandling+0x126>
 8001334:	68fb      	ldr	r3, [r7, #12]
 8001336:	f003 0304 	and.w	r3, r3, #4
 800133a:	2b00      	cmp	r3, #0
 800133c:	d019      	beq.n	8001372 <I2C_EV_IRQHandling+0x126>
    {
        if ((pI2CHandle->TxRxState == I2C_BUSY_IN_RX) &&
 800133e:	697b      	ldr	r3, [r7, #20]
 8001340:	f893 3020 	ldrb.w	r3, [r3, #32]
 8001344:	b2db      	uxtb	r3, r3
 8001346:	2b02      	cmp	r3, #2
 8001348:	d113      	bne.n	8001372 <I2C_EV_IRQHandling+0x126>
            (pI2CHandle->RxLen > 0U))
 800134a:	697b      	ldr	r3, [r7, #20]
 800134c:	699b      	ldr	r3, [r3, #24]
        if ((pI2CHandle->TxRxState == I2C_BUSY_IN_RX) &&
 800134e:	2b00      	cmp	r3, #0
 8001350:	d00f      	beq.n	8001372 <I2C_EV_IRQHandling+0x126>
        {
            *(pI2CHandle->pRxBuffer) = (uint8_t)pI2Cx->I2C_RXDR;
 8001352:	687b      	ldr	r3, [r7, #4]
 8001354:	6a5a      	ldr	r2, [r3, #36]	@ 0x24
 8001356:	697b      	ldr	r3, [r7, #20]
 8001358:	691b      	ldr	r3, [r3, #16]
 800135a:	b2d2      	uxtb	r2, r2
 800135c:	701a      	strb	r2, [r3, #0]
            pI2CHandle->pRxBuffer++;
 800135e:	697b      	ldr	r3, [r7, #20]
 8001360:	691b      	ldr	r3, [r3, #16]
 8001362:	1c5a      	adds	r2, r3, #1
 8001364:	697b      	ldr	r3, [r7, #20]
 8001366:	611a      	str	r2, [r3, #16]
            pI2CHandle->RxLen--;
 8001368:	697b      	ldr	r3, [r7, #20]
 800136a:	699b      	ldr	r3, [r3, #24]
 800136c:	1e5a      	subs	r2, r3, #1
 800136e:	697b      	ldr	r3, [r7, #20]
 8001370:	619a      	str	r2, [r3, #24]

    /*
     * TC: transfer complete, but STOP is not generated because AUTOEND = 0.
     * Used for repeated start or manual phase completion.
     */
    if ((isr & I2C_FLAG_TC) && (cr1 & (1U << I2C_CR1_TCIE)))
 8001372:	693b      	ldr	r3, [r7, #16]
 8001374:	f003 0340 	and.w	r3, r3, #64	@ 0x40
 8001378:	2b00      	cmp	r3, #0
 800137a:	d033      	beq.n	80013e4 <I2C_EV_IRQHandling+0x198>
 800137c:	68fb      	ldr	r3, [r7, #12]
 800137e:	f003 0340 	and.w	r3, r3, #64	@ 0x40
 8001382:	2b00      	cmp	r3, #0
 8001384:	d02e      	beq.n	80013e4 <I2C_EV_IRQHandling+0x198>
    {
        /*
         * Write-read mode:
         * TX phase finished, now generate repeated START for RX phase.
         */
        if ((pI2CHandle->XferMode == I2C_XFER_MODE_WRITE_READ) &&
 8001386:	697b      	ldr	r3, [r7, #20]
 8001388:	f893 3022 	ldrb.w	r3, [r3, #34]	@ 0x22
 800138c:	b2db      	uxtb	r3, r3
 800138e:	2b03      	cmp	r3, #3
 8001390:	d109      	bne.n	80013a6 <I2C_EV_IRQHandling+0x15a>
            (pI2CHandle->TxRxState == I2C_BUSY_IN_TX))
 8001392:	697b      	ldr	r3, [r7, #20]
 8001394:	f893 3020 	ldrb.w	r3, [r3, #32]
 8001398:	b2db      	uxtb	r3, r3
        if ((pI2CHandle->XferMode == I2C_XFER_MODE_WRITE_READ) &&
 800139a:	2b01      	cmp	r3, #1
 800139c:	d103      	bne.n	80013a6 <I2C_EV_IRQHandling+0x15a>
        {
            I2C_StartReadPhaseFromWriteRead(pI2CHandle);
 800139e:	6978      	ldr	r0, [r7, #20]
 80013a0:	f7ff fc82 	bl	8000ca8 <I2C_StartReadPhaseFromWriteRead>
 80013a4:	e01e      	b.n	80013e4 <I2C_EV_IRQHandling+0x198>
        }
        else if (pI2CHandle->Sr == I2C_ENABLE_SR)
 80013a6:	697b      	ldr	r3, [r7, #20]
 80013a8:	7fdb      	ldrb	r3, [r3, #31]
 80013aa:	2b01      	cmp	r3, #1
 80013ac:	d11a      	bne.n	80013e4 <I2C_EV_IRQHandling+0x198>
        {
            if (pI2CHandle->TxRxState == I2C_BUSY_IN_TX)
 80013ae:	697b      	ldr	r3, [r7, #20]
 80013b0:	f893 3020 	ldrb.w	r3, [r3, #32]
 80013b4:	b2db      	uxtb	r3, r3
 80013b6:	2b01      	cmp	r3, #1
 80013b8:	d107      	bne.n	80013ca <I2C_EV_IRQHandling+0x17e>
            {
                I2C_CloseSendData(pI2CHandle);
 80013ba:	6978      	ldr	r0, [r7, #20]
 80013bc:	f7ff fe02 	bl	8000fc4 <I2C_CloseSendData>
                I2C_ApplicationEventCallback(pI2CHandle,
 80013c0:	2100      	movs	r1, #0
 80013c2:	6978      	ldr	r0, [r7, #20]
 80013c4:	f000 fea8 	bl	8002118 <I2C_ApplicationEventCallback>
 80013c8:	e00c      	b.n	80013e4 <I2C_EV_IRQHandling+0x198>
                                             I2C_EVENT_TX_CMPLT);
            }
            else if (pI2CHandle->TxRxState == I2C_BUSY_IN_RX)
 80013ca:	697b      	ldr	r3, [r7, #20]
 80013cc:	f893 3020 	ldrb.w	r3, [r3, #32]
 80013d0:	b2db      	uxtb	r3, r3
 80013d2:	2b02      	cmp	r3, #2
 80013d4:	d106      	bne.n	80013e4 <I2C_EV_IRQHandling+0x198>
            {
                I2C_CloseReceiveData(pI2CHandle);
 80013d6:	6978      	ldr	r0, [r7, #20]
 80013d8:	f7ff fe46 	bl	8001068 <I2C_CloseReceiveData>
                I2C_ApplicationEventCallback(pI2CHandle,
 80013dc:	2101      	movs	r1, #1
 80013de:	6978      	ldr	r0, [r7, #20]
 80013e0:	f000 fe9a 	bl	8002118 <I2C_ApplicationEventCallback>

    /*
     * STOPF: transfer completed with STOP condition.
     * Normal completion path when AUTOEND = 1.
     */
    if ((isr & I2C_FLAG_STOPF) && (cr1 & (1U << I2C_CR1_STOPIE)))
 80013e4:	693b      	ldr	r3, [r7, #16]
 80013e6:	f003 0320 	and.w	r3, r3, #32
 80013ea:	2b00      	cmp	r3, #0
 80013ec:	d03d      	beq.n	800146a <I2C_EV_IRQHandling+0x21e>
 80013ee:	68fb      	ldr	r3, [r7, #12]
 80013f0:	f003 0320 	and.w	r3, r3, #32
 80013f4:	2b00      	cmp	r3, #0
 80013f6:	d038      	beq.n	800146a <I2C_EV_IRQHandling+0x21e>
    {
        uint8_t xfer_mode;

        I2C_ClearSTOPFlag(pI2Cx);
 80013f8:	6878      	ldr	r0, [r7, #4]
 80013fa:	f7ff fdc1 	bl	8000f80 <I2C_ClearSTOPFlag>

        xfer_mode = pI2CHandle->XferMode;
 80013fe:	697b      	ldr	r3, [r7, #20]
 8001400:	f893 3022 	ldrb.w	r3, [r3, #34]	@ 0x22
 8001404:	72fb      	strb	r3, [r7, #11]

        if (pI2CHandle->TxRxState == I2C_BUSY_IN_TX)
 8001406:	697b      	ldr	r3, [r7, #20]
 8001408:	f893 3020 	ldrb.w	r3, [r3, #32]
 800140c:	b2db      	uxtb	r3, r3
 800140e:	2b01      	cmp	r3, #1
 8001410:	d10f      	bne.n	8001432 <I2C_EV_IRQHandling+0x1e6>
        {
            I2C_CloseSendData(pI2CHandle);
 8001412:	6978      	ldr	r0, [r7, #20]
 8001414:	f7ff fdd6 	bl	8000fc4 <I2C_CloseSendData>

            if (xfer_mode == I2C_XFER_MODE_WRITE_READ)
 8001418:	7afb      	ldrb	r3, [r7, #11]
 800141a:	2b03      	cmp	r3, #3
 800141c:	d104      	bne.n	8001428 <I2C_EV_IRQHandling+0x1dc>
            {
                I2C_ApplicationEventCallback(pI2CHandle,
 800141e:	2108      	movs	r1, #8
 8001420:	6978      	ldr	r0, [r7, #20]
 8001422:	f000 fe79 	bl	8002118 <I2C_ApplicationEventCallback>
 8001426:	e020      	b.n	800146a <I2C_EV_IRQHandling+0x21e>
                                             I2C_EVENT_WR_RD_CMPLT);
            }
            else
            {
                I2C_ApplicationEventCallback(pI2CHandle,
 8001428:	2100      	movs	r1, #0
 800142a:	6978      	ldr	r0, [r7, #20]
 800142c:	f000 fe74 	bl	8002118 <I2C_ApplicationEventCallback>
 8001430:	e01b      	b.n	800146a <I2C_EV_IRQHandling+0x21e>
                                             I2C_EVENT_TX_CMPLT);
            }
        }
        else if (pI2CHandle->TxRxState == I2C_BUSY_IN_RX)
 8001432:	697b      	ldr	r3, [r7, #20]
 8001434:	f893 3020 	ldrb.w	r3, [r3, #32]
 8001438:	b2db      	uxtb	r3, r3
 800143a:	2b02      	cmp	r3, #2
 800143c:	d10f      	bne.n	800145e <I2C_EV_IRQHandling+0x212>
        {
            I2C_CloseReceiveData(pI2CHandle);
 800143e:	6978      	ldr	r0, [r7, #20]
 8001440:	f7ff fe12 	bl	8001068 <I2C_CloseReceiveData>

            if (xfer_mode == I2C_XFER_MODE_WRITE_READ)
 8001444:	7afb      	ldrb	r3, [r7, #11]
 8001446:	2b03      	cmp	r3, #3
 8001448:	d104      	bne.n	8001454 <I2C_EV_IRQHandling+0x208>
            {
                I2C_ApplicationEventCallback(pI2CHandle,
 800144a:	2108      	movs	r1, #8
 800144c:	6978      	ldr	r0, [r7, #20]
 800144e:	f000 fe63 	bl	8002118 <I2C_ApplicationEventCallback>
 8001452:	e00a      	b.n	800146a <I2C_EV_IRQHandling+0x21e>
                                             I2C_EVENT_WR_RD_CMPLT);
            }
            else
            {
                I2C_ApplicationEventCallback(pI2CHandle,
 8001454:	2101      	movs	r1, #1
 8001456:	6978      	ldr	r0, [r7, #20]
 8001458:	f000 fe5e 	bl	8002118 <I2C_ApplicationEventCallback>
 800145c:	e005      	b.n	800146a <I2C_EV_IRQHandling+0x21e>
                                             I2C_EVENT_RX_CMPLT);
            }
        }
        else
        {
            I2C_ApplicationEventCallback(pI2CHandle,
 800145e:	2102      	movs	r1, #2
 8001460:	6978      	ldr	r0, [r7, #20]
 8001462:	f000 fe59 	bl	8002118 <I2C_ApplicationEventCallback>
 8001466:	e000      	b.n	800146a <I2C_EV_IRQHandling+0x21e>
        return;
 8001468:	bf00      	nop
                                         I2C_EVENT_STOP);
        }
    }
}
 800146a:	3718      	adds	r7, #24
 800146c:	46bd      	mov	sp, r7
 800146e:	bd80      	pop	{r7, pc}

08001470 <I2C_ER_IRQHandling>:
void I2C_ER_IRQHandling(I2C_RegDef_t *pI2Cx)
{
 8001470:	b580      	push	{r7, lr}
 8001472:	b086      	sub	sp, #24
 8001474:	af00      	add	r7, sp, #0
 8001476:	6078      	str	r0, [r7, #4]
    I2C_Handle_t *pI2CHandle;
    uint32_t isr;
    uint32_t cr1;
    uint8_t event = 0U;
 8001478:	2300      	movs	r3, #0
 800147a:	75fb      	strb	r3, [r7, #23]

    pI2CHandle = I2C_GetHandleFromInstance(pI2Cx);
 800147c:	6878      	ldr	r0, [r7, #4]
 800147e:	f7ff fba7 	bl	8000bd0 <I2C_GetHandleFromInstance>
 8001482:	6138      	str	r0, [r7, #16]

    if (pI2CHandle == 0)
 8001484:	693b      	ldr	r3, [r7, #16]
 8001486:	2b00      	cmp	r3, #0
 8001488:	d07d      	beq.n	8001586 <I2C_ER_IRQHandling+0x116>
    {
        return;
    }

    isr = pI2Cx->I2C_ISR;
 800148a:	687b      	ldr	r3, [r7, #4]
 800148c:	699b      	ldr	r3, [r3, #24]
 800148e:	60fb      	str	r3, [r7, #12]
    cr1 = pI2Cx->I2C_CR1;
 8001490:	687b      	ldr	r3, [r7, #4]
 8001492:	681b      	ldr	r3, [r3, #0]
 8001494:	60bb      	str	r3, [r7, #8]

    if ((cr1 & (1U << I2C_CR1_ERRIE)) == 0U)
 8001496:	68bb      	ldr	r3, [r7, #8]
 8001498:	f003 0380 	and.w	r3, r3, #128	@ 0x80
 800149c:	2b00      	cmp	r3, #0
 800149e:	d074      	beq.n	800158a <I2C_ER_IRQHandling+0x11a>
    {
        return;
    }

    if (isr & I2C_FLAG_BERR)
 80014a0:	68fb      	ldr	r3, [r7, #12]
 80014a2:	f403 7380 	and.w	r3, r3, #256	@ 0x100
 80014a6:	2b00      	cmp	r3, #0
 80014a8:	d010      	beq.n	80014cc <I2C_ER_IRQHandling+0x5c>
    {
        pI2CHandle->ErrorCode |= I2C_ERROR_BERR;
 80014aa:	693b      	ldr	r3, [r7, #16]
 80014ac:	f893 3021 	ldrb.w	r3, [r3, #33]	@ 0x21
 80014b0:	b2db      	uxtb	r3, r3
 80014b2:	f043 0301 	orr.w	r3, r3, #1
 80014b6:	b2da      	uxtb	r2, r3
 80014b8:	693b      	ldr	r3, [r7, #16]
 80014ba:	f883 2021 	strb.w	r2, [r3, #33]	@ 0x21
        pI2Cx->I2C_ICR = (1U << I2C_ICR_BERRCF);
 80014be:	687b      	ldr	r3, [r7, #4]
 80014c0:	f44f 7280 	mov.w	r2, #256	@ 0x100
 80014c4:	61da      	str	r2, [r3, #28]
        event = I2C_EVENT_BERR;
 80014c6:	2304      	movs	r3, #4
 80014c8:	75fb      	strb	r3, [r7, #23]
 80014ca:	e040      	b.n	800154e <I2C_ER_IRQHandling+0xde>
    }
    else if (isr & I2C_FLAG_ARLO)
 80014cc:	68fb      	ldr	r3, [r7, #12]
 80014ce:	f403 7300 	and.w	r3, r3, #512	@ 0x200
 80014d2:	2b00      	cmp	r3, #0
 80014d4:	d010      	beq.n	80014f8 <I2C_ER_IRQHandling+0x88>
    {
        pI2CHandle->ErrorCode |= I2C_ERROR_ARLO;
 80014d6:	693b      	ldr	r3, [r7, #16]
 80014d8:	f893 3021 	ldrb.w	r3, [r3, #33]	@ 0x21
 80014dc:	b2db      	uxtb	r3, r3
 80014de:	f043 0302 	orr.w	r3, r3, #2
 80014e2:	b2da      	uxtb	r2, r3
 80014e4:	693b      	ldr	r3, [r7, #16]
 80014e6:	f883 2021 	strb.w	r2, [r3, #33]	@ 0x21
        pI2Cx->I2C_ICR = (1U << I2C_ICR_ARLOCF);
 80014ea:	687b      	ldr	r3, [r7, #4]
 80014ec:	f44f 7200 	mov.w	r2, #512	@ 0x200
 80014f0:	61da      	str	r2, [r3, #28]
        event = I2C_EVENT_ARLO;
 80014f2:	2305      	movs	r3, #5
 80014f4:	75fb      	strb	r3, [r7, #23]
 80014f6:	e02a      	b.n	800154e <I2C_ER_IRQHandling+0xde>
    }
    else if (isr & I2C_FLAG_OVR)
 80014f8:	68fb      	ldr	r3, [r7, #12]
 80014fa:	f403 6380 	and.w	r3, r3, #1024	@ 0x400
 80014fe:	2b00      	cmp	r3, #0
 8001500:	d010      	beq.n	8001524 <I2C_ER_IRQHandling+0xb4>
    {
        pI2CHandle->ErrorCode |= I2C_ERROR_OVR;
 8001502:	693b      	ldr	r3, [r7, #16]
 8001504:	f893 3021 	ldrb.w	r3, [r3, #33]	@ 0x21
 8001508:	b2db      	uxtb	r3, r3
 800150a:	f043 0304 	orr.w	r3, r3, #4
 800150e:	b2da      	uxtb	r2, r3
 8001510:	693b      	ldr	r3, [r7, #16]
 8001512:	f883 2021 	strb.w	r2, [r3, #33]	@ 0x21
        pI2Cx->I2C_ICR = (1U << I2C_ICR_OVRCF);
 8001516:	687b      	ldr	r3, [r7, #4]
 8001518:	f44f 6280 	mov.w	r2, #1024	@ 0x400
 800151c:	61da      	str	r2, [r3, #28]
        event = I2C_EVENT_OVR;
 800151e:	2306      	movs	r3, #6
 8001520:	75fb      	strb	r3, [r7, #23]
 8001522:	e014      	b.n	800154e <I2C_ER_IRQHandling+0xde>
    }
    else if (isr & I2C_FLAG_TIMEOUT)
 8001524:	68fb      	ldr	r3, [r7, #12]
 8001526:	f403 5380 	and.w	r3, r3, #4096	@ 0x1000
 800152a:	2b00      	cmp	r3, #0
 800152c:	d00f      	beq.n	800154e <I2C_ER_IRQHandling+0xde>
    {
        pI2CHandle->ErrorCode |= I2C_ERROR_TIMEOUT;
 800152e:	693b      	ldr	r3, [r7, #16]
 8001530:	f893 3021 	ldrb.w	r3, [r3, #33]	@ 0x21
 8001534:	b2db      	uxtb	r3, r3
 8001536:	f043 0308 	orr.w	r3, r3, #8
 800153a:	b2da      	uxtb	r2, r3
 800153c:	693b      	ldr	r3, [r7, #16]
 800153e:	f883 2021 	strb.w	r2, [r3, #33]	@ 0x21
        pI2Cx->I2C_ICR = (1U << I2C_ICR_TIMOUTCF);
 8001542:	687b      	ldr	r3, [r7, #4]
 8001544:	f44f 5280 	mov.w	r2, #4096	@ 0x1000
 8001548:	61da      	str	r2, [r3, #28]
        event = I2C_EVENT_TIMEOUT;
 800154a:	2307      	movs	r3, #7
 800154c:	75fb      	strb	r3, [r7, #23]
    }

    if (event != 0U)
 800154e:	7dfb      	ldrb	r3, [r7, #23]
 8001550:	2b00      	cmp	r3, #0
 8001552:	d01b      	beq.n	800158c <I2C_ER_IRQHandling+0x11c>
    {
        if (pI2CHandle->TxRxState == I2C_BUSY_IN_TX)
 8001554:	693b      	ldr	r3, [r7, #16]
 8001556:	f893 3020 	ldrb.w	r3, [r3, #32]
 800155a:	b2db      	uxtb	r3, r3
 800155c:	2b01      	cmp	r3, #1
 800155e:	d103      	bne.n	8001568 <I2C_ER_IRQHandling+0xf8>
        {
            I2C_CloseSendData(pI2CHandle);
 8001560:	6938      	ldr	r0, [r7, #16]
 8001562:	f7ff fd2f 	bl	8000fc4 <I2C_CloseSendData>
 8001566:	e008      	b.n	800157a <I2C_ER_IRQHandling+0x10a>
        }
        else if (pI2CHandle->TxRxState == I2C_BUSY_IN_RX)
 8001568:	693b      	ldr	r3, [r7, #16]
 800156a:	f893 3020 	ldrb.w	r3, [r3, #32]
 800156e:	b2db      	uxtb	r3, r3
 8001570:	2b02      	cmp	r3, #2
 8001572:	d102      	bne.n	800157a <I2C_ER_IRQHandling+0x10a>
        {
            I2C_CloseReceiveData(pI2CHandle);
 8001574:	6938      	ldr	r0, [r7, #16]
 8001576:	f7ff fd77 	bl	8001068 <I2C_CloseReceiveData>
        }

        I2C_ApplicationEventCallback(pI2CHandle, event);
 800157a:	7dfb      	ldrb	r3, [r7, #23]
 800157c:	4619      	mov	r1, r3
 800157e:	6938      	ldr	r0, [r7, #16]
 8001580:	f000 fdca 	bl	8002118 <I2C_ApplicationEventCallback>
 8001584:	e002      	b.n	800158c <I2C_ER_IRQHandling+0x11c>
        return;
 8001586:	bf00      	nop
 8001588:	e000      	b.n	800158c <I2C_ER_IRQHandling+0x11c>
        return;
 800158a:	bf00      	nop
    }
}
 800158c:	3718      	adds	r7, #24
 800158e:	46bd      	mov	sp, r7
 8001590:	bd80      	pop	{r7, pc}
	...

08001594 <NVIC_IRQInterruptConfig>:
 *  Created on: Jun 6, 2026
 *      Author: furkan
 */
#include "stm32f767xx.h"
void NVIC_IRQInterruptConfig(uint8_t IRQNumber, uint8_t EnorDi)
{
 8001594:	b480      	push	{r7}
 8001596:	b085      	sub	sp, #20
 8001598:	af00      	add	r7, sp, #0
 800159a:	4603      	mov	r3, r0
 800159c:	460a      	mov	r2, r1
 800159e:	71fb      	strb	r3, [r7, #7]
 80015a0:	4613      	mov	r3, r2
 80015a2:	71bb      	strb	r3, [r7, #6]
	uint8_t reg_index;
	uint8_t bit_position;

	reg_index = IRQNumber / 32U;
 80015a4:	79fb      	ldrb	r3, [r7, #7]
 80015a6:	095b      	lsrs	r3, r3, #5
 80015a8:	73fb      	strb	r3, [r7, #15]
	bit_position = IRQNumber % 32U;
 80015aa:	79fb      	ldrb	r3, [r7, #7]
 80015ac:	f003 031f 	and.w	r3, r3, #31
 80015b0:	73bb      	strb	r3, [r7, #14]

	if (EnorDi == ENABLE)
 80015b2:	79bb      	ldrb	r3, [r7, #6]
 80015b4:	2b01      	cmp	r3, #1
 80015b6:	d109      	bne.n	80015cc <NVIC_IRQInterruptConfig+0x38>
	{
		*(NVIC_ISER_BASEADDR + reg_index) = (1U << bit_position);
 80015b8:	7bba      	ldrb	r2, [r7, #14]
 80015ba:	7bfb      	ldrb	r3, [r7, #15]
 80015bc:	0099      	lsls	r1, r3, #2
 80015be:	4b0b      	ldr	r3, [pc, #44]	@ (80015ec <NVIC_IRQInterruptConfig+0x58>)
 80015c0:	440b      	add	r3, r1
 80015c2:	2101      	movs	r1, #1
 80015c4:	fa01 f202 	lsl.w	r2, r1, r2
 80015c8:	601a      	str	r2, [r3, #0]
	}
	else
	{
		*(NVIC_ICER_BASEADDR + reg_index) = (1U << bit_position);
	}
}
 80015ca:	e008      	b.n	80015de <NVIC_IRQInterruptConfig+0x4a>
		*(NVIC_ICER_BASEADDR + reg_index) = (1U << bit_position);
 80015cc:	7bba      	ldrb	r2, [r7, #14]
 80015ce:	7bfb      	ldrb	r3, [r7, #15]
 80015d0:	0099      	lsls	r1, r3, #2
 80015d2:	4b07      	ldr	r3, [pc, #28]	@ (80015f0 <NVIC_IRQInterruptConfig+0x5c>)
 80015d4:	440b      	add	r3, r1
 80015d6:	2101      	movs	r1, #1
 80015d8:	fa01 f202 	lsl.w	r2, r1, r2
 80015dc:	601a      	str	r2, [r3, #0]
}
 80015de:	bf00      	nop
 80015e0:	3714      	adds	r7, #20
 80015e2:	46bd      	mov	sp, r7
 80015e4:	f85d 7b04 	ldr.w	r7, [sp], #4
 80015e8:	4770      	bx	lr
 80015ea:	bf00      	nop
 80015ec:	e000e100 	.word	0xe000e100
 80015f0:	e000e180 	.word	0xe000e180

080015f4 <NVIC_IRQPriorityConfig>:

void NVIC_IRQPriorityConfig(uint8_t IRQNumber, uint32_t IRQPriority)
{
 80015f4:	b480      	push	{r7}
 80015f6:	b085      	sub	sp, #20
 80015f8:	af00      	add	r7, sp, #0
 80015fa:	4603      	mov	r3, r0
 80015fc:	6039      	str	r1, [r7, #0]
 80015fe:	71fb      	strb	r3, [r7, #7]
	uint8_t iprx = IRQNumber / 4U;
 8001600:	79fb      	ldrb	r3, [r7, #7]
 8001602:	089b      	lsrs	r3, r3, #2
 8001604:	73fb      	strb	r3, [r7, #15]
	uint8_t iprx_section = IRQNumber % 4U;
 8001606:	79fb      	ldrb	r3, [r7, #7]
 8001608:	f003 0303 	and.w	r3, r3, #3
 800160c:	73bb      	strb	r3, [r7, #14]

	uint8_t shift_amount = (8U * iprx_section) + (8U - NO_PR_BITS_IMPLEMENTED);
 800160e:	7bbb      	ldrb	r3, [r7, #14]
 8001610:	00db      	lsls	r3, r3, #3
 8001612:	b2db      	uxtb	r3, r3
 8001614:	3304      	adds	r3, #4
 8001616:	737b      	strb	r3, [r7, #13]

	*(NVIC_PR_BASEADDR + iprx) &= ~((uint32_t)0xFFU << (8U * iprx_section));
 8001618:	7bfb      	ldrb	r3, [r7, #15]
 800161a:	009a      	lsls	r2, r3, #2
 800161c:	4b12      	ldr	r3, [pc, #72]	@ (8001668 <NVIC_IRQPriorityConfig+0x74>)
 800161e:	4413      	add	r3, r2
 8001620:	6819      	ldr	r1, [r3, #0]
 8001622:	7bbb      	ldrb	r3, [r7, #14]
 8001624:	00db      	lsls	r3, r3, #3
 8001626:	22ff      	movs	r2, #255	@ 0xff
 8001628:	fa02 f303 	lsl.w	r3, r2, r3
 800162c:	43da      	mvns	r2, r3
 800162e:	7bfb      	ldrb	r3, [r7, #15]
 8001630:	0098      	lsls	r0, r3, #2
 8001632:	4b0d      	ldr	r3, [pc, #52]	@ (8001668 <NVIC_IRQPriorityConfig+0x74>)
 8001634:	4403      	add	r3, r0
 8001636:	400a      	ands	r2, r1
 8001638:	601a      	str	r2, [r3, #0]
	*(NVIC_PR_BASEADDR + iprx) |=  ((IRQPriority & 0x0FU) << shift_amount);
 800163a:	7bfb      	ldrb	r3, [r7, #15]
 800163c:	009a      	lsls	r2, r3, #2
 800163e:	4b0a      	ldr	r3, [pc, #40]	@ (8001668 <NVIC_IRQPriorityConfig+0x74>)
 8001640:	4413      	add	r3, r2
 8001642:	6819      	ldr	r1, [r3, #0]
 8001644:	683b      	ldr	r3, [r7, #0]
 8001646:	f003 020f 	and.w	r2, r3, #15
 800164a:	7b7b      	ldrb	r3, [r7, #13]
 800164c:	409a      	lsls	r2, r3
 800164e:	7bfb      	ldrb	r3, [r7, #15]
 8001650:	0098      	lsls	r0, r3, #2
 8001652:	4b05      	ldr	r3, [pc, #20]	@ (8001668 <NVIC_IRQPriorityConfig+0x74>)
 8001654:	4403      	add	r3, r0
 8001656:	430a      	orrs	r2, r1
 8001658:	601a      	str	r2, [r3, #0]
}
 800165a:	bf00      	nop
 800165c:	3714      	adds	r7, #20
 800165e:	46bd      	mov	sp, r7
 8001660:	f85d 7b04 	ldr.w	r7, [sp], #4
 8001664:	4770      	bx	lr
 8001666:	bf00      	nop
 8001668:	e000e400 	.word	0xe000e400

0800166c <SPI_GetHandleFromInstance>:
		s_SPI6Handle = pSPIHandle;
	}
}

static SPI_Handle_t *SPI_GetHandleFromInstance(SPI_RegDef_t *pSPIx)
{
 800166c:	b480      	push	{r7}
 800166e:	b083      	sub	sp, #12
 8001670:	af00      	add	r7, sp, #0
 8001672:	6078      	str	r0, [r7, #4]
	if (pSPIx == SPI1)
 8001674:	687b      	ldr	r3, [r7, #4]
 8001676:	4a18      	ldr	r2, [pc, #96]	@ (80016d8 <SPI_GetHandleFromInstance+0x6c>)
 8001678:	4293      	cmp	r3, r2
 800167a:	d102      	bne.n	8001682 <SPI_GetHandleFromInstance+0x16>
	{
		return s_SPI1Handle;
 800167c:	4b17      	ldr	r3, [pc, #92]	@ (80016dc <SPI_GetHandleFromInstance+0x70>)
 800167e:	681b      	ldr	r3, [r3, #0]
 8001680:	e023      	b.n	80016ca <SPI_GetHandleFromInstance+0x5e>
	}
	else if (pSPIx == SPI2)
 8001682:	687b      	ldr	r3, [r7, #4]
 8001684:	4a16      	ldr	r2, [pc, #88]	@ (80016e0 <SPI_GetHandleFromInstance+0x74>)
 8001686:	4293      	cmp	r3, r2
 8001688:	d102      	bne.n	8001690 <SPI_GetHandleFromInstance+0x24>
	{
		return s_SPI2Handle;
 800168a:	4b16      	ldr	r3, [pc, #88]	@ (80016e4 <SPI_GetHandleFromInstance+0x78>)
 800168c:	681b      	ldr	r3, [r3, #0]
 800168e:	e01c      	b.n	80016ca <SPI_GetHandleFromInstance+0x5e>
	}
	else if (pSPIx == SPI3)
 8001690:	687b      	ldr	r3, [r7, #4]
 8001692:	4a15      	ldr	r2, [pc, #84]	@ (80016e8 <SPI_GetHandleFromInstance+0x7c>)
 8001694:	4293      	cmp	r3, r2
 8001696:	d102      	bne.n	800169e <SPI_GetHandleFromInstance+0x32>
	{
		return s_SPI3Handle;
 8001698:	4b14      	ldr	r3, [pc, #80]	@ (80016ec <SPI_GetHandleFromInstance+0x80>)
 800169a:	681b      	ldr	r3, [r3, #0]
 800169c:	e015      	b.n	80016ca <SPI_GetHandleFromInstance+0x5e>
	}
	else if (pSPIx == SPI4)
 800169e:	687b      	ldr	r3, [r7, #4]
 80016a0:	4a13      	ldr	r2, [pc, #76]	@ (80016f0 <SPI_GetHandleFromInstance+0x84>)
 80016a2:	4293      	cmp	r3, r2
 80016a4:	d102      	bne.n	80016ac <SPI_GetHandleFromInstance+0x40>
	{
		return s_SPI4Handle;
 80016a6:	4b13      	ldr	r3, [pc, #76]	@ (80016f4 <SPI_GetHandleFromInstance+0x88>)
 80016a8:	681b      	ldr	r3, [r3, #0]
 80016aa:	e00e      	b.n	80016ca <SPI_GetHandleFromInstance+0x5e>
	}
	else if (pSPIx == SPI5)
 80016ac:	687b      	ldr	r3, [r7, #4]
 80016ae:	4a12      	ldr	r2, [pc, #72]	@ (80016f8 <SPI_GetHandleFromInstance+0x8c>)
 80016b0:	4293      	cmp	r3, r2
 80016b2:	d102      	bne.n	80016ba <SPI_GetHandleFromInstance+0x4e>
	{
		return s_SPI5Handle;
 80016b4:	4b11      	ldr	r3, [pc, #68]	@ (80016fc <SPI_GetHandleFromInstance+0x90>)
 80016b6:	681b      	ldr	r3, [r3, #0]
 80016b8:	e007      	b.n	80016ca <SPI_GetHandleFromInstance+0x5e>
	}
	else if (pSPIx == SPI6)
 80016ba:	687b      	ldr	r3, [r7, #4]
 80016bc:	4a10      	ldr	r2, [pc, #64]	@ (8001700 <SPI_GetHandleFromInstance+0x94>)
 80016be:	4293      	cmp	r3, r2
 80016c0:	d102      	bne.n	80016c8 <SPI_GetHandleFromInstance+0x5c>
	{
		return s_SPI6Handle;
 80016c2:	4b10      	ldr	r3, [pc, #64]	@ (8001704 <SPI_GetHandleFromInstance+0x98>)
 80016c4:	681b      	ldr	r3, [r3, #0]
 80016c6:	e000      	b.n	80016ca <SPI_GetHandleFromInstance+0x5e>
	}

	return 0;
 80016c8:	2300      	movs	r3, #0
}
 80016ca:	4618      	mov	r0, r3
 80016cc:	370c      	adds	r7, #12
 80016ce:	46bd      	mov	sp, r7
 80016d0:	f85d 7b04 	ldr.w	r7, [sp], #4
 80016d4:	4770      	bx	lr
 80016d6:	bf00      	nop
 80016d8:	40013000 	.word	0x40013000
 80016dc:	20000070 	.word	0x20000070
 80016e0:	40003800 	.word	0x40003800
 80016e4:	20000074 	.word	0x20000074
 80016e8:	40003c00 	.word	0x40003c00
 80016ec:	20000078 	.word	0x20000078
 80016f0:	40013400 	.word	0x40013400
 80016f4:	2000007c 	.word	0x2000007c
 80016f8:	40015000 	.word	0x40015000
 80016fc:	20000080 	.word	0x20000080
 8001700:	40015400 	.word	0x40015400
 8001704:	20000084 	.word	0x20000084

08001708 <SPI_WriteData8>:

	return RESET;
}

static void SPI_WriteData8(SPI_RegDef_t *pSPIx, uint8_t data)
{
 8001708:	b480      	push	{r7}
 800170a:	b083      	sub	sp, #12
 800170c:	af00      	add	r7, sp, #0
 800170e:	6078      	str	r0, [r7, #4]
 8001710:	460b      	mov	r3, r1
 8001712:	70fb      	strb	r3, [r7, #3]
	/*
	 * Acces DR with 8-bit width
	 */
	*((volatile uint8_t *)&pSPIx->SPI_DR) = data;
 8001714:	687b      	ldr	r3, [r7, #4]
 8001716:	330c      	adds	r3, #12
 8001718:	78fa      	ldrb	r2, [r7, #3]
 800171a:	701a      	strb	r2, [r3, #0]
}
 800171c:	bf00      	nop
 800171e:	370c      	adds	r7, #12
 8001720:	46bd      	mov	sp, r7
 8001722:	f85d 7b04 	ldr.w	r7, [sp], #4
 8001726:	4770      	bx	lr

08001728 <SPI_ReadData8>:
static uint8_t SPI_ReadData8(SPI_RegDef_t *pSPIx)
{
 8001728:	b480      	push	{r7}
 800172a:	b083      	sub	sp, #12
 800172c:	af00      	add	r7, sp, #0
 800172e:	6078      	str	r0, [r7, #4]
	return *((volatile uint8_t *)&pSPIx->SPI_DR);
 8001730:	687b      	ldr	r3, [r7, #4]
 8001732:	330c      	adds	r3, #12
 8001734:	781b      	ldrb	r3, [r3, #0]
 8001736:	b2db      	uxtb	r3, r3
}
 8001738:	4618      	mov	r0, r3
 800173a:	370c      	adds	r7, #12
 800173c:	46bd      	mov	sp, r7
 800173e:	f85d 7b04 	ldr.w	r7, [sp], #4
 8001742:	4770      	bx	lr

08001744 <SPI_EndITTransfer>:
static void SPI_EndITTransfer(SPI_Handle_t *pSPIHandle,uint8_t Event)
{
 8001744:	b580      	push	{r7, lr}
 8001746:	b084      	sub	sp, #16
 8001748:	af00      	add	r7, sp, #0
 800174a:	6078      	str	r0, [r7, #4]
 800174c:	460b      	mov	r3, r1
 800174e:	70fb      	strb	r3, [r7, #3]
	SPI_RegDef_t *pSPIx = pSPIHandle->pSPIx;
 8001750:	687b      	ldr	r3, [r7, #4]
 8001752:	681b      	ldr	r3, [r3, #0]
 8001754:	60fb      	str	r3, [r7, #12]

	pSPIx->SPI_CR2 &= ~(1U << SPI_CR2_TXEIE);
 8001756:	68fb      	ldr	r3, [r7, #12]
 8001758:	685b      	ldr	r3, [r3, #4]
 800175a:	f023 0280 	bic.w	r2, r3, #128	@ 0x80
 800175e:	68fb      	ldr	r3, [r7, #12]
 8001760:	605a      	str	r2, [r3, #4]
	pSPIx->SPI_CR2 &= ~(1U << SPI_CR2_RXNEIE);
 8001762:	68fb      	ldr	r3, [r7, #12]
 8001764:	685b      	ldr	r3, [r3, #4]
 8001766:	f023 0240 	bic.w	r2, r3, #64	@ 0x40
 800176a:	68fb      	ldr	r3, [r7, #12]
 800176c:	605a      	str	r2, [r3, #4]
	pSPIx->SPI_CR2 &= ~(1U << SPI_CR2_ERRIE);
 800176e:	68fb      	ldr	r3, [r7, #12]
 8001770:	685b      	ldr	r3, [r3, #4]
 8001772:	f023 0220 	bic.w	r2, r3, #32
 8001776:	68fb      	ldr	r3, [r7, #12]
 8001778:	605a      	str	r2, [r3, #4]

	pSPIHandle->pTxBuffer = 0;
 800177a:	687b      	ldr	r3, [r7, #4]
 800177c:	2200      	movs	r2, #0
 800177e:	60da      	str	r2, [r3, #12]
	pSPIHandle->pRxBuffer = 0;
 8001780:	687b      	ldr	r3, [r7, #4]
 8001782:	2200      	movs	r2, #0
 8001784:	611a      	str	r2, [r3, #16]
	pSPIHandle->TxLen = 0U;
 8001786:	687b      	ldr	r3, [r7, #4]
 8001788:	2200      	movs	r2, #0
 800178a:	615a      	str	r2, [r3, #20]
	pSPIHandle->RxLen = 0U;
 800178c:	687b      	ldr	r3, [r7, #4]
 800178e:	2200      	movs	r2, #0
 8001790:	619a      	str	r2, [r3, #24]
	pSPIHandle->TxState = SPI_READY;
 8001792:	687b      	ldr	r3, [r7, #4]
 8001794:	2200      	movs	r2, #0
 8001796:	771a      	strb	r2, [r3, #28]
	pSPIHandle->RxState = SPI_READY;
 8001798:	687b      	ldr	r3, [r7, #4]
 800179a:	2200      	movs	r2, #0
 800179c:	775a      	strb	r2, [r3, #29]
	pSPIHandle->TransferMode = SPI_TRANSFER_MODE_NONE;
 800179e:	687b      	ldr	r3, [r7, #4]
 80017a0:	2200      	movs	r2, #0
 80017a2:	779a      	strb	r2, [r3, #30]

	SPI_ApplicationEventCallback(pSPIHandle, Event);
 80017a4:	78fb      	ldrb	r3, [r7, #3]
 80017a6:	4619      	mov	r1, r3
 80017a8:	6878      	ldr	r0, [r7, #4]
 80017aa:	f000 f950 	bl	8001a4e <SPI_ApplicationEventCallback>
}
 80017ae:	bf00      	nop
 80017b0:	3710      	adds	r7, #16
 80017b2:	46bd      	mov	sp, r7
 80017b4:	bd80      	pop	{r7, pc}

080017b6 <SPI_TryEndITTransfer>:

static void SPI_TryEndITTransfer(SPI_Handle_t *pSPIHandle)
{
 80017b6:	b580      	push	{r7, lr}
 80017b8:	b082      	sub	sp, #8
 80017ba:	af00      	add	r7, sp, #0
 80017bc:	6078      	str	r0, [r7, #4]
	if ((pSPIHandle->TxLen == 0U) && (pSPIHandle->RxLen == 0U))
 80017be:	687b      	ldr	r3, [r7, #4]
 80017c0:	695b      	ldr	r3, [r3, #20]
 80017c2:	2b00      	cmp	r3, #0
 80017c4:	d120      	bne.n	8001808 <SPI_TryEndITTransfer+0x52>
 80017c6:	687b      	ldr	r3, [r7, #4]
 80017c8:	699b      	ldr	r3, [r3, #24]
 80017ca:	2b00      	cmp	r3, #0
 80017cc:	d11c      	bne.n	8001808 <SPI_TryEndITTransfer+0x52>
	{
		if (pSPIHandle->TransferMode == SPI_TRANSFER_MODE_TX_ONLY)
 80017ce:	687b      	ldr	r3, [r7, #4]
 80017d0:	7f9b      	ldrb	r3, [r3, #30]
 80017d2:	b2db      	uxtb	r3, r3
 80017d4:	2b01      	cmp	r3, #1
 80017d6:	d104      	bne.n	80017e2 <SPI_TryEndITTransfer+0x2c>
		{
			SPI_EndITTransfer(pSPIHandle, SPI_EVENT_TX_CMPLT);
 80017d8:	2100      	movs	r1, #0
 80017da:	6878      	ldr	r0, [r7, #4]
 80017dc:	f7ff ffb2 	bl	8001744 <SPI_EndITTransfer>
		else if (pSPIHandle->TransferMode == SPI_TRANSFER_MODE_TX_RX)
		{
			SPI_EndITTransfer(pSPIHandle, SPI_EVENT_TX_RX_CMPLT);
		}
	}
}
 80017e0:	e012      	b.n	8001808 <SPI_TryEndITTransfer+0x52>
		else if (pSPIHandle->TransferMode == SPI_TRANSFER_MODE_RX_ONLY)
 80017e2:	687b      	ldr	r3, [r7, #4]
 80017e4:	7f9b      	ldrb	r3, [r3, #30]
 80017e6:	b2db      	uxtb	r3, r3
 80017e8:	2b02      	cmp	r3, #2
 80017ea:	d104      	bne.n	80017f6 <SPI_TryEndITTransfer+0x40>
			SPI_EndITTransfer(pSPIHandle, SPI_EVENT_RX_CMPLT);
 80017ec:	2101      	movs	r1, #1
 80017ee:	6878      	ldr	r0, [r7, #4]
 80017f0:	f7ff ffa8 	bl	8001744 <SPI_EndITTransfer>
}
 80017f4:	e008      	b.n	8001808 <SPI_TryEndITTransfer+0x52>
		else if (pSPIHandle->TransferMode == SPI_TRANSFER_MODE_TX_RX)
 80017f6:	687b      	ldr	r3, [r7, #4]
 80017f8:	7f9b      	ldrb	r3, [r3, #30]
 80017fa:	b2db      	uxtb	r3, r3
 80017fc:	2b03      	cmp	r3, #3
 80017fe:	d103      	bne.n	8001808 <SPI_TryEndITTransfer+0x52>
			SPI_EndITTransfer(pSPIHandle, SPI_EVENT_TX_RX_CMPLT);
 8001800:	2102      	movs	r1, #2
 8001802:	6878      	ldr	r0, [r7, #4]
 8001804:	f7ff ff9e 	bl	8001744 <SPI_EndITTransfer>
}
 8001808:	bf00      	nop
 800180a:	3708      	adds	r7, #8
 800180c:	46bd      	mov	sp, r7
 800180e:	bd80      	pop	{r7, pc}

08001810 <SPI_IRQHandling>:
		return SPI_STATUS_BUSY_TIMEOUT;
	}
	return SPI_STATUS_OK;
}
void SPI_IRQHandling(SPI_RegDef_t *pSPIx)
{
 8001810:	b590      	push	{r4, r7, lr}
 8001812:	b087      	sub	sp, #28
 8001814:	af00      	add	r7, sp, #0
 8001816:	6078      	str	r0, [r7, #4]
	SPI_Handle_t *pSPIHandle;
	uint32_t sr;
	uint32_t cr2;
	uint8_t dummy_read;

	pSPIHandle = SPI_GetHandleFromInstance(pSPIx);
 8001818:	6878      	ldr	r0, [r7, #4]
 800181a:	f7ff ff27 	bl	800166c <SPI_GetHandleFromInstance>
 800181e:	6178      	str	r0, [r7, #20]

	if (pSPIHandle == 0)
 8001820:	697b      	ldr	r3, [r7, #20]
 8001822:	2b00      	cmp	r3, #0
 8001824:	f000 80cc 	beq.w	80019c0 <SPI_IRQHandling+0x1b0>
	{
		return;
	}

	sr = pSPIx->SPI_SR;
 8001828:	687b      	ldr	r3, [r7, #4]
 800182a:	689b      	ldr	r3, [r3, #8]
 800182c:	613b      	str	r3, [r7, #16]
	cr2 = pSPIx->SPI_CR2;
 800182e:	687b      	ldr	r3, [r7, #4]
 8001830:	685b      	ldr	r3, [r3, #4]
 8001832:	60fb      	str	r3, [r7, #12]

	/*
	 * OVR error
	 */
	if ((sr & SPI_FLAG_OVR) && (cr2 & (1U << SPI_CR2_ERRIE)))
 8001834:	693b      	ldr	r3, [r7, #16]
 8001836:	f003 0340 	and.w	r3, r3, #64	@ 0x40
 800183a:	2b00      	cmp	r3, #0
 800183c:	d00c      	beq.n	8001858 <SPI_IRQHandling+0x48>
 800183e:	68fb      	ldr	r3, [r7, #12]
 8001840:	f003 0320 	and.w	r3, r3, #32
 8001844:	2b00      	cmp	r3, #0
 8001846:	d007      	beq.n	8001858 <SPI_IRQHandling+0x48>
	{
		SPI_ClearOVRFlag(pSPIx);
 8001848:	6878      	ldr	r0, [r7, #4]
 800184a:	f000 f8bd 	bl	80019c8 <SPI_ClearOVRFlag>

		SPI_EndITTransfer(pSPIHandle, SPI_EVENT_OVR_ERR);
 800184e:	2103      	movs	r1, #3
 8001850:	6978      	ldr	r0, [r7, #20]
 8001852:	f7ff ff77 	bl	8001744 <SPI_EndITTransfer>
		return;
 8001856:	e0b4      	b.n	80019c2 <SPI_IRQHandling+0x1b2>
	}

	/*
	 * MODF error
	 */
	if ((sr & SPI_FLAG_MODF) && (cr2 & (1U << SPI_CR2_ERRIE)))
 8001858:	693b      	ldr	r3, [r7, #16]
 800185a:	f003 0320 	and.w	r3, r3, #32
 800185e:	2b00      	cmp	r3, #0
 8001860:	d00c      	beq.n	800187c <SPI_IRQHandling+0x6c>
 8001862:	68fb      	ldr	r3, [r7, #12]
 8001864:	f003 0320 	and.w	r3, r3, #32
 8001868:	2b00      	cmp	r3, #0
 800186a:	d007      	beq.n	800187c <SPI_IRQHandling+0x6c>
	{
		SPI_ClearMODFFlag(pSPIx);
 800186c:	6878      	ldr	r0, [r7, #4]
 800186e:	f000 f8bc 	bl	80019ea <SPI_ClearMODFFlag>

		SPI_EndITTransfer(pSPIHandle, SPI_EVENT_MODF_ERR);
 8001872:	2104      	movs	r1, #4
 8001874:	6978      	ldr	r0, [r7, #20]
 8001876:	f7ff ff65 	bl	8001744 <SPI_EndITTransfer>
		return;
 800187a:	e0a2      	b.n	80019c2 <SPI_IRQHandling+0x1b2>
	}

	/*
	 * CRC error
	 */
	if ((sr & SPI_FLAG_CRCERR) && (cr2 & (1U << SPI_CR2_ERRIE)))
 800187c:	693b      	ldr	r3, [r7, #16]
 800187e:	f003 0310 	and.w	r3, r3, #16
 8001882:	2b00      	cmp	r3, #0
 8001884:	d00c      	beq.n	80018a0 <SPI_IRQHandling+0x90>
 8001886:	68fb      	ldr	r3, [r7, #12]
 8001888:	f003 0320 	and.w	r3, r3, #32
 800188c:	2b00      	cmp	r3, #0
 800188e:	d007      	beq.n	80018a0 <SPI_IRQHandling+0x90>
	{
		SPI_ClearCRCERRFlag(pSPIx);
 8001890:	6878      	ldr	r0, [r7, #4]
 8001892:	f000 f8be 	bl	8001a12 <SPI_ClearCRCERRFlag>

		SPI_EndITTransfer(pSPIHandle, SPI_EVENT_CRC_ERR);
 8001896:	2105      	movs	r1, #5
 8001898:	6978      	ldr	r0, [r7, #20]
 800189a:	f7ff ff53 	bl	8001744 <SPI_EndITTransfer>
		return;
 800189e:	e090      	b.n	80019c2 <SPI_IRQHandling+0x1b2>
	}

	/*
	 * Frame format error
	 */
	if ((sr & SPI_FLAG_FRE) && (cr2 & (1U << SPI_CR2_ERRIE)))
 80018a0:	693b      	ldr	r3, [r7, #16]
 80018a2:	f403 7380 	and.w	r3, r3, #256	@ 0x100
 80018a6:	2b00      	cmp	r3, #0
 80018a8:	d00c      	beq.n	80018c4 <SPI_IRQHandling+0xb4>
 80018aa:	68fb      	ldr	r3, [r7, #12]
 80018ac:	f003 0320 	and.w	r3, r3, #32
 80018b0:	2b00      	cmp	r3, #0
 80018b2:	d007      	beq.n	80018c4 <SPI_IRQHandling+0xb4>
	{
		SPI_ClearFREFlag(pSPIx);
 80018b4:	6878      	ldr	r0, [r7, #4]
 80018b6:	f000 f8bc 	bl	8001a32 <SPI_ClearFREFlag>

		SPI_EndITTransfer(pSPIHandle, SPI_EVENT_FRE_ERR);
 80018ba:	2106      	movs	r1, #6
 80018bc:	6978      	ldr	r0, [r7, #20]
 80018be:	f7ff ff41 	bl	8001744 <SPI_EndITTransfer>
		return;
 80018c2:	e07e      	b.n	80019c2 <SPI_IRQHandling+0x1b2>
	}

	/*
	 * TXE interrupt
	 */
	if ((sr & SPI_FLAG_TXE) && (cr2 & (1U << SPI_CR2_TXEIE)))
 80018c4:	693b      	ldr	r3, [r7, #16]
 80018c6:	f003 0302 	and.w	r3, r3, #2
 80018ca:	2b00      	cmp	r3, #0
 80018cc:	d034      	beq.n	8001938 <SPI_IRQHandling+0x128>
 80018ce:	68fb      	ldr	r3, [r7, #12]
 80018d0:	f003 0380 	and.w	r3, r3, #128	@ 0x80
 80018d4:	2b00      	cmp	r3, #0
 80018d6:	d02f      	beq.n	8001938 <SPI_IRQHandling+0x128>
	{
		if (pSPIHandle->TxLen > 0U)
 80018d8:	697b      	ldr	r3, [r7, #20]
 80018da:	695b      	ldr	r3, [r3, #20]
 80018dc:	2b00      	cmp	r3, #0
 80018de:	d025      	beq.n	800192c <SPI_IRQHandling+0x11c>
		{
			if (pSPIHandle->TransferMode == SPI_TRANSFER_MODE_RX_ONLY)
 80018e0:	697b      	ldr	r3, [r7, #20]
 80018e2:	7f9b      	ldrb	r3, [r3, #30]
 80018e4:	b2db      	uxtb	r3, r3
 80018e6:	2b02      	cmp	r3, #2
 80018e8:	d104      	bne.n	80018f4 <SPI_IRQHandling+0xe4>
			{
				SPI_WriteData8(pSPIx, 0xFFU);
 80018ea:	21ff      	movs	r1, #255	@ 0xff
 80018ec:	6878      	ldr	r0, [r7, #4]
 80018ee:	f7ff ff0b 	bl	8001708 <SPI_WriteData8>
 80018f2:	e00b      	b.n	800190c <SPI_IRQHandling+0xfc>
			}
			else
			{
				SPI_WriteData8(pSPIx, *(pSPIHandle->pTxBuffer));
 80018f4:	697b      	ldr	r3, [r7, #20]
 80018f6:	68db      	ldr	r3, [r3, #12]
 80018f8:	781b      	ldrb	r3, [r3, #0]
 80018fa:	4619      	mov	r1, r3
 80018fc:	6878      	ldr	r0, [r7, #4]
 80018fe:	f7ff ff03 	bl	8001708 <SPI_WriteData8>
				pSPIHandle->pTxBuffer++;
 8001902:	697b      	ldr	r3, [r7, #20]
 8001904:	68db      	ldr	r3, [r3, #12]
 8001906:	1c5a      	adds	r2, r3, #1
 8001908:	697b      	ldr	r3, [r7, #20]
 800190a:	60da      	str	r2, [r3, #12]
			}

			pSPIHandle->TxLen--;
 800190c:	697b      	ldr	r3, [r7, #20]
 800190e:	695b      	ldr	r3, [r3, #20]
 8001910:	1e5a      	subs	r2, r3, #1
 8001912:	697b      	ldr	r3, [r7, #20]
 8001914:	615a      	str	r2, [r3, #20]

			if (pSPIHandle->TxLen == 0U)
 8001916:	697b      	ldr	r3, [r7, #20]
 8001918:	695b      	ldr	r3, [r3, #20]
 800191a:	2b00      	cmp	r3, #0
 800191c:	d10c      	bne.n	8001938 <SPI_IRQHandling+0x128>
			{
				pSPIx->SPI_CR2 &= ~(1U << SPI_CR2_TXEIE);
 800191e:	687b      	ldr	r3, [r7, #4]
 8001920:	685b      	ldr	r3, [r3, #4]
 8001922:	f023 0280 	bic.w	r2, r3, #128	@ 0x80
 8001926:	687b      	ldr	r3, [r7, #4]
 8001928:	605a      	str	r2, [r3, #4]
 800192a:	e005      	b.n	8001938 <SPI_IRQHandling+0x128>
			}
		}
		else
		{
			pSPIx->SPI_CR2 &= ~(1U << SPI_CR2_TXEIE);
 800192c:	687b      	ldr	r3, [r7, #4]
 800192e:	685b      	ldr	r3, [r3, #4]
 8001930:	f023 0280 	bic.w	r2, r3, #128	@ 0x80
 8001934:	687b      	ldr	r3, [r7, #4]
 8001936:	605a      	str	r2, [r3, #4]
	}

	/*
	 * RXNE interrupt
	 */
	if ((sr & SPI_FLAG_RXNE) && (cr2 & (1U << SPI_CR2_RXNEIE)))
 8001938:	693b      	ldr	r3, [r7, #16]
 800193a:	f003 0301 	and.w	r3, r3, #1
 800193e:	2b00      	cmp	r3, #0
 8001940:	d03a      	beq.n	80019b8 <SPI_IRQHandling+0x1a8>
 8001942:	68fb      	ldr	r3, [r7, #12]
 8001944:	f003 0340 	and.w	r3, r3, #64	@ 0x40
 8001948:	2b00      	cmp	r3, #0
 800194a:	d035      	beq.n	80019b8 <SPI_IRQHandling+0x1a8>
	{
		if (pSPIHandle->RxLen > 0U)
 800194c:	697b      	ldr	r3, [r7, #20]
 800194e:	699b      	ldr	r3, [r3, #24]
 8001950:	2b00      	cmp	r3, #0
 8001952:	d026      	beq.n	80019a2 <SPI_IRQHandling+0x192>
		{
			if (pSPIHandle->TransferMode == SPI_TRANSFER_MODE_TX_ONLY)
 8001954:	697b      	ldr	r3, [r7, #20]
 8001956:	7f9b      	ldrb	r3, [r3, #30]
 8001958:	b2db      	uxtb	r3, r3
 800195a:	2b01      	cmp	r3, #1
 800195c:	d105      	bne.n	800196a <SPI_IRQHandling+0x15a>
			{
				dummy_read = SPI_ReadData8(pSPIx);
 800195e:	6878      	ldr	r0, [r7, #4]
 8001960:	f7ff fee2 	bl	8001728 <SPI_ReadData8>
 8001964:	4603      	mov	r3, r0
 8001966:	72fb      	strb	r3, [r7, #11]
 8001968:	e00b      	b.n	8001982 <SPI_IRQHandling+0x172>
				(void)dummy_read;
			}
			else
			{
				*(pSPIHandle->pRxBuffer) = SPI_ReadData8(pSPIx);
 800196a:	697b      	ldr	r3, [r7, #20]
 800196c:	691c      	ldr	r4, [r3, #16]
 800196e:	6878      	ldr	r0, [r7, #4]
 8001970:	f7ff feda 	bl	8001728 <SPI_ReadData8>
 8001974:	4603      	mov	r3, r0
 8001976:	7023      	strb	r3, [r4, #0]
				pSPIHandle->pRxBuffer++;
 8001978:	697b      	ldr	r3, [r7, #20]
 800197a:	691b      	ldr	r3, [r3, #16]
 800197c:	1c5a      	adds	r2, r3, #1
 800197e:	697b      	ldr	r3, [r7, #20]
 8001980:	611a      	str	r2, [r3, #16]
			}

			pSPIHandle->RxLen--;
 8001982:	697b      	ldr	r3, [r7, #20]
 8001984:	699b      	ldr	r3, [r3, #24]
 8001986:	1e5a      	subs	r2, r3, #1
 8001988:	697b      	ldr	r3, [r7, #20]
 800198a:	619a      	str	r2, [r3, #24]

			if (pSPIHandle->RxLen == 0U)
 800198c:	697b      	ldr	r3, [r7, #20]
 800198e:	699b      	ldr	r3, [r3, #24]
 8001990:	2b00      	cmp	r3, #0
 8001992:	d111      	bne.n	80019b8 <SPI_IRQHandling+0x1a8>
			{
				pSPIx->SPI_CR2 &= ~(1U << SPI_CR2_RXNEIE);
 8001994:	687b      	ldr	r3, [r7, #4]
 8001996:	685b      	ldr	r3, [r3, #4]
 8001998:	f023 0240 	bic.w	r2, r3, #64	@ 0x40
 800199c:	687b      	ldr	r3, [r7, #4]
 800199e:	605a      	str	r2, [r3, #4]
 80019a0:	e00a      	b.n	80019b8 <SPI_IRQHandling+0x1a8>
			}
		}
		else
		{
			dummy_read = SPI_ReadData8(pSPIx);
 80019a2:	6878      	ldr	r0, [r7, #4]
 80019a4:	f7ff fec0 	bl	8001728 <SPI_ReadData8>
 80019a8:	4603      	mov	r3, r0
 80019aa:	72fb      	strb	r3, [r7, #11]
			(void)dummy_read;

			pSPIx->SPI_CR2 &= ~(1U << SPI_CR2_RXNEIE);
 80019ac:	687b      	ldr	r3, [r7, #4]
 80019ae:	685b      	ldr	r3, [r3, #4]
 80019b0:	f023 0240 	bic.w	r2, r3, #64	@ 0x40
 80019b4:	687b      	ldr	r3, [r7, #4]
 80019b6:	605a      	str	r2, [r3, #4]
		}
	}

	SPI_TryEndITTransfer(pSPIHandle);
 80019b8:	6978      	ldr	r0, [r7, #20]
 80019ba:	f7ff fefc 	bl	80017b6 <SPI_TryEndITTransfer>
 80019be:	e000      	b.n	80019c2 <SPI_IRQHandling+0x1b2>
		return;
 80019c0:	bf00      	nop
}
 80019c2:	371c      	adds	r7, #28
 80019c4:	46bd      	mov	sp, r7
 80019c6:	bd90      	pop	{r4, r7, pc}

080019c8 <SPI_ClearOVRFlag>:
	}

	return error_Status;
}
void SPI_ClearOVRFlag(SPI_RegDef_t *pSPIx)
{
 80019c8:	b480      	push	{r7}
 80019ca:	b085      	sub	sp, #20
 80019cc:	af00      	add	r7, sp, #0
 80019ce:	6078      	str	r0, [r7, #4]
	volatile uint32_t temp;

	/*
	* OVR is cleared by reading DR followed by reading SR.
	*/
	temp = pSPIx->SPI_DR;
 80019d0:	687b      	ldr	r3, [r7, #4]
 80019d2:	68db      	ldr	r3, [r3, #12]
 80019d4:	60fb      	str	r3, [r7, #12]
	temp = pSPIx->SPI_SR;
 80019d6:	687b      	ldr	r3, [r7, #4]
 80019d8:	689b      	ldr	r3, [r3, #8]
 80019da:	60fb      	str	r3, [r7, #12]

	(void)temp;
 80019dc:	68fb      	ldr	r3, [r7, #12]
}
 80019de:	bf00      	nop
 80019e0:	3714      	adds	r7, #20
 80019e2:	46bd      	mov	sp, r7
 80019e4:	f85d 7b04 	ldr.w	r7, [sp], #4
 80019e8:	4770      	bx	lr

080019ea <SPI_ClearMODFFlag>:

void SPI_ClearMODFFlag(SPI_RegDef_t *pSPIx)
{
 80019ea:	b480      	push	{r7}
 80019ec:	b085      	sub	sp, #20
 80019ee:	af00      	add	r7, sp, #0
 80019f0:	6078      	str	r0, [r7, #4]
	/*
	 * MODF is cleared by:
	 * 1. Read or write SPI_SR while MODF is set
	 * 2. Write SPI_CR1
	 */
	temp = pSPIx->SPI_SR;
 80019f2:	687b      	ldr	r3, [r7, #4]
 80019f4:	689b      	ldr	r3, [r3, #8]
 80019f6:	60bb      	str	r3, [r7, #8]
	(void) temp;
 80019f8:	68bb      	ldr	r3, [r7, #8]

	cr1 = pSPIx->SPI_CR1;
 80019fa:	687b      	ldr	r3, [r7, #4]
 80019fc:	681b      	ldr	r3, [r3, #0]
 80019fe:	60fb      	str	r3, [r7, #12]
	pSPIx->SPI_CR1 = cr1;
 8001a00:	687b      	ldr	r3, [r7, #4]
 8001a02:	68fa      	ldr	r2, [r7, #12]
 8001a04:	601a      	str	r2, [r3, #0]
}
 8001a06:	bf00      	nop
 8001a08:	3714      	adds	r7, #20
 8001a0a:	46bd      	mov	sp, r7
 8001a0c:	f85d 7b04 	ldr.w	r7, [sp], #4
 8001a10:	4770      	bx	lr

08001a12 <SPI_ClearCRCERRFlag>:

void SPI_ClearCRCERRFlag(SPI_RegDef_t *pSPIx)
{
 8001a12:	b480      	push	{r7}
 8001a14:	b083      	sub	sp, #12
 8001a16:	af00      	add	r7, sp, #0
 8001a18:	6078      	str	r0, [r7, #4]
	/*
	 * CRCERR is cleared by writing 0 to CRCERR bit.
	 */
	pSPIx->SPI_SR &= ~(1U << SPI_SR_CRCERR);
 8001a1a:	687b      	ldr	r3, [r7, #4]
 8001a1c:	689b      	ldr	r3, [r3, #8]
 8001a1e:	f023 0210 	bic.w	r2, r3, #16
 8001a22:	687b      	ldr	r3, [r7, #4]
 8001a24:	609a      	str	r2, [r3, #8]
}
 8001a26:	bf00      	nop
 8001a28:	370c      	adds	r7, #12
 8001a2a:	46bd      	mov	sp, r7
 8001a2c:	f85d 7b04 	ldr.w	r7, [sp], #4
 8001a30:	4770      	bx	lr

08001a32 <SPI_ClearFREFlag>:

void SPI_ClearFREFlag(SPI_RegDef_t *pSPIx)
{
 8001a32:	b480      	push	{r7}
 8001a34:	b085      	sub	sp, #20
 8001a36:	af00      	add	r7, sp, #0
 8001a38:	6078      	str	r0, [r7, #4]
	volatile uint32_t temp;

	/*
	 * FRE is cleared by reading SPI_SR.
	 */
	temp = pSPIx->SPI_SR;
 8001a3a:	687b      	ldr	r3, [r7, #4]
 8001a3c:	689b      	ldr	r3, [r3, #8]
 8001a3e:	60fb      	str	r3, [r7, #12]

	(void) temp;
 8001a40:	68fb      	ldr	r3, [r7, #12]
}
 8001a42:	bf00      	nop
 8001a44:	3714      	adds	r7, #20
 8001a46:	46bd      	mov	sp, r7
 8001a48:	f85d 7b04 	ldr.w	r7, [sp], #4
 8001a4c:	4770      	bx	lr

08001a4e <SPI_ApplicationEventCallback>:
	pSPIHandle->pRxBuffer = 0;
	pSPIHandle->RxLen = 0U;
	pSPIHandle->RxState = SPI_READY;
}
__attribute__((weak)) void SPI_ApplicationEventCallback(SPI_Handle_t *pSPIHandle,uint8_t Event)
{
 8001a4e:	b480      	push	{r7}
 8001a50:	b083      	sub	sp, #12
 8001a52:	af00      	add	r7, sp, #0
 8001a54:	6078      	str	r0, [r7, #4]
 8001a56:	460b      	mov	r3, r1
 8001a58:	70fb      	strb	r3, [r7, #3]
	(void)pSPIHandle;
	(void)Event;
}
 8001a5a:	bf00      	nop
 8001a5c:	370c      	adds	r7, #12
 8001a5e:	46bd      	mov	sp, r7
 8001a60:	f85d 7b04 	ldr.w	r7, [sp], #4
 8001a64:	4770      	bx	lr
	...

08001a68 <SysTick_Init>:
#include "stm32f767xx_systick_driver.h"

static volatile uint32_t g_systick_ms = 0;

void SysTick_Init(uint32_t system_clock_hz)
{
 8001a68:	b480      	push	{r7}
 8001a6a:	b085      	sub	sp, #20
 8001a6c:	af00      	add	r7, sp, #0
 8001a6e:	6078      	str	r0, [r7, #4]
	 * Example:
	 * system_clock_hz = 16 MHz
	 * reload_value = 16000
	 * SYST_RVR = 16000 - 1
	 */
	reload_value = system_clock_hz / 1000U;
 8001a70:	687b      	ldr	r3, [r7, #4]
 8001a72:	4a17      	ldr	r2, [pc, #92]	@ (8001ad0 <SysTick_Init+0x68>)
 8001a74:	fba2 2303 	umull	r2, r3, r2, r3
 8001a78:	099b      	lsrs	r3, r3, #6
 8001a7a:	60fb      	str	r3, [r7, #12]

	/*
	 * SysTick is a 24-bit timer.
	 * Maximum reload value is 0x00FFFFFF.
	 */
	if ((reload_value == 0U) || (reload_value > 0x00FFFFFFU))
 8001a7c:	68fb      	ldr	r3, [r7, #12]
 8001a7e:	2b00      	cmp	r3, #0
 8001a80:	d020      	beq.n	8001ac4 <SysTick_Init+0x5c>
 8001a82:	68fb      	ldr	r3, [r7, #12]
 8001a84:	f1b3 7f80 	cmp.w	r3, #16777216	@ 0x1000000
 8001a88:	d21c      	bcs.n	8001ac4 <SysTick_Init+0x5c>
	}

	/*
	 * 1. Disable SysTick during configuration
	 */
	SYSTICK->SYST_CSR = 0U;
 8001a8a:	4b12      	ldr	r3, [pc, #72]	@ (8001ad4 <SysTick_Init+0x6c>)
 8001a8c:	2200      	movs	r2, #0
 8001a8e:	601a      	str	r2, [r3, #0]

	/*
	 * 2. Set reload value for 1 ms tick
	 */
	SYSTICK->SYST_RVR = reload_value - 1U;
 8001a90:	4a10      	ldr	r2, [pc, #64]	@ (8001ad4 <SysTick_Init+0x6c>)
 8001a92:	68fb      	ldr	r3, [r7, #12]
 8001a94:	3b01      	subs	r3, #1
 8001a96:	6053      	str	r3, [r2, #4]

	/*
	 * 3. Clear current value register
	 */
	SYSTICK->SYST_CVR = 0U;
 8001a98:	4b0e      	ldr	r3, [pc, #56]	@ (8001ad4 <SysTick_Init+0x6c>)
 8001a9a:	2200      	movs	r2, #0
 8001a9c:	609a      	str	r2, [r3, #8]

	/*
	 * 4. Select processor clock, enable SysTick interrupt, enable SysTick
	 */
	SYSTICK->SYST_CSR |= (1U << SYSTICK_CSR_CLKSOURCE);
 8001a9e:	4b0d      	ldr	r3, [pc, #52]	@ (8001ad4 <SysTick_Init+0x6c>)
 8001aa0:	681b      	ldr	r3, [r3, #0]
 8001aa2:	4a0c      	ldr	r2, [pc, #48]	@ (8001ad4 <SysTick_Init+0x6c>)
 8001aa4:	f043 0304 	orr.w	r3, r3, #4
 8001aa8:	6013      	str	r3, [r2, #0]
	SYSTICK->SYST_CSR |= (1U << SYSTICK_CSR_TICKINT);
 8001aaa:	4b0a      	ldr	r3, [pc, #40]	@ (8001ad4 <SysTick_Init+0x6c>)
 8001aac:	681b      	ldr	r3, [r3, #0]
 8001aae:	4a09      	ldr	r2, [pc, #36]	@ (8001ad4 <SysTick_Init+0x6c>)
 8001ab0:	f043 0302 	orr.w	r3, r3, #2
 8001ab4:	6013      	str	r3, [r2, #0]
	SYSTICK->SYST_CSR |= (1U << SYSTICK_CSR_ENABLE);
 8001ab6:	4b07      	ldr	r3, [pc, #28]	@ (8001ad4 <SysTick_Init+0x6c>)
 8001ab8:	681b      	ldr	r3, [r3, #0]
 8001aba:	4a06      	ldr	r2, [pc, #24]	@ (8001ad4 <SysTick_Init+0x6c>)
 8001abc:	f043 0301 	orr.w	r3, r3, #1
 8001ac0:	6013      	str	r3, [r2, #0]
 8001ac2:	e000      	b.n	8001ac6 <SysTick_Init+0x5e>
		return;
 8001ac4:	bf00      	nop
}
 8001ac6:	3714      	adds	r7, #20
 8001ac8:	46bd      	mov	sp, r7
 8001aca:	f85d 7b04 	ldr.w	r7, [sp], #4
 8001ace:	4770      	bx	lr
 8001ad0:	10624dd3 	.word	0x10624dd3
 8001ad4:	e000e010 	.word	0xe000e010

08001ad8 <SysTick_IncTick>:

void SysTick_IncTick(void)
{
 8001ad8:	b480      	push	{r7}
 8001ada:	af00      	add	r7, sp, #0
	g_systick_ms++;
 8001adc:	4b04      	ldr	r3, [pc, #16]	@ (8001af0 <SysTick_IncTick+0x18>)
 8001ade:	681b      	ldr	r3, [r3, #0]
 8001ae0:	3301      	adds	r3, #1
 8001ae2:	4a03      	ldr	r2, [pc, #12]	@ (8001af0 <SysTick_IncTick+0x18>)
 8001ae4:	6013      	str	r3, [r2, #0]
}
 8001ae6:	bf00      	nop
 8001ae8:	46bd      	mov	sp, r7
 8001aea:	f85d 7b04 	ldr.w	r7, [sp], #4
 8001aee:	4770      	bx	lr
 8001af0:	20000088 	.word	0x20000088

08001af4 <millis>:

uint32_t millis(void)
{
 8001af4:	b480      	push	{r7}
 8001af6:	af00      	add	r7, sp, #0
	return g_systick_ms;
 8001af8:	4b03      	ldr	r3, [pc, #12]	@ (8001b08 <millis+0x14>)
 8001afa:	681b      	ldr	r3, [r3, #0]
}
 8001afc:	4618      	mov	r0, r3
 8001afe:	46bd      	mov	sp, r7
 8001b00:	f85d 7b04 	ldr.w	r7, [sp], #4
 8001b04:	4770      	bx	lr
 8001b06:	bf00      	nop
 8001b08:	20000088 	.word	0x20000088

08001b0c <USART_GetHandleFromInstance>:
		s_UART8Handle = pUSARTHandle;
	}
}

static USART_Handle_t *USART_GetHandleFromInstance(USART_RegDef_t *pUSARTx)
{
 8001b0c:	b480      	push	{r7}
 8001b0e:	b083      	sub	sp, #12
 8001b10:	af00      	add	r7, sp, #0
 8001b12:	6078      	str	r0, [r7, #4]
	if (pUSARTx == USART1)
 8001b14:	687b      	ldr	r3, [r7, #4]
 8001b16:	4a1f      	ldr	r2, [pc, #124]	@ (8001b94 <USART_GetHandleFromInstance+0x88>)
 8001b18:	4293      	cmp	r3, r2
 8001b1a:	d102      	bne.n	8001b22 <USART_GetHandleFromInstance+0x16>
	{
		return s_USART1Handle;
 8001b1c:	4b1e      	ldr	r3, [pc, #120]	@ (8001b98 <USART_GetHandleFromInstance+0x8c>)
 8001b1e:	681b      	ldr	r3, [r3, #0]
 8001b20:	e031      	b.n	8001b86 <USART_GetHandleFromInstance+0x7a>
	}
	else if (pUSARTx == USART2)
 8001b22:	687b      	ldr	r3, [r7, #4]
 8001b24:	4a1d      	ldr	r2, [pc, #116]	@ (8001b9c <USART_GetHandleFromInstance+0x90>)
 8001b26:	4293      	cmp	r3, r2
 8001b28:	d102      	bne.n	8001b30 <USART_GetHandleFromInstance+0x24>
	{
		return s_USART2Handle;
 8001b2a:	4b1d      	ldr	r3, [pc, #116]	@ (8001ba0 <USART_GetHandleFromInstance+0x94>)
 8001b2c:	681b      	ldr	r3, [r3, #0]
 8001b2e:	e02a      	b.n	8001b86 <USART_GetHandleFromInstance+0x7a>
	}
	else if (pUSARTx == USART3)
 8001b30:	687b      	ldr	r3, [r7, #4]
 8001b32:	4a1c      	ldr	r2, [pc, #112]	@ (8001ba4 <USART_GetHandleFromInstance+0x98>)
 8001b34:	4293      	cmp	r3, r2
 8001b36:	d102      	bne.n	8001b3e <USART_GetHandleFromInstance+0x32>
	{
		return s_USART3Handle;
 8001b38:	4b1b      	ldr	r3, [pc, #108]	@ (8001ba8 <USART_GetHandleFromInstance+0x9c>)
 8001b3a:	681b      	ldr	r3, [r3, #0]
 8001b3c:	e023      	b.n	8001b86 <USART_GetHandleFromInstance+0x7a>
	}
	else if (pUSARTx == UART4)
 8001b3e:	687b      	ldr	r3, [r7, #4]
 8001b40:	4a1a      	ldr	r2, [pc, #104]	@ (8001bac <USART_GetHandleFromInstance+0xa0>)
 8001b42:	4293      	cmp	r3, r2
 8001b44:	d102      	bne.n	8001b4c <USART_GetHandleFromInstance+0x40>
	{
		return s_UART4Handle;
 8001b46:	4b1a      	ldr	r3, [pc, #104]	@ (8001bb0 <USART_GetHandleFromInstance+0xa4>)
 8001b48:	681b      	ldr	r3, [r3, #0]
 8001b4a:	e01c      	b.n	8001b86 <USART_GetHandleFromInstance+0x7a>
	}
	else if (pUSARTx == UART5)
 8001b4c:	687b      	ldr	r3, [r7, #4]
 8001b4e:	4a19      	ldr	r2, [pc, #100]	@ (8001bb4 <USART_GetHandleFromInstance+0xa8>)
 8001b50:	4293      	cmp	r3, r2
 8001b52:	d102      	bne.n	8001b5a <USART_GetHandleFromInstance+0x4e>
	{
		return s_UART5Handle;
 8001b54:	4b18      	ldr	r3, [pc, #96]	@ (8001bb8 <USART_GetHandleFromInstance+0xac>)
 8001b56:	681b      	ldr	r3, [r3, #0]
 8001b58:	e015      	b.n	8001b86 <USART_GetHandleFromInstance+0x7a>
	}
	else if (pUSARTx == USART6)
 8001b5a:	687b      	ldr	r3, [r7, #4]
 8001b5c:	4a17      	ldr	r2, [pc, #92]	@ (8001bbc <USART_GetHandleFromInstance+0xb0>)
 8001b5e:	4293      	cmp	r3, r2
 8001b60:	d102      	bne.n	8001b68 <USART_GetHandleFromInstance+0x5c>
	{
		return s_USART6Handle;
 8001b62:	4b17      	ldr	r3, [pc, #92]	@ (8001bc0 <USART_GetHandleFromInstance+0xb4>)
 8001b64:	681b      	ldr	r3, [r3, #0]
 8001b66:	e00e      	b.n	8001b86 <USART_GetHandleFromInstance+0x7a>
	}
	else if (pUSARTx == UART7)
 8001b68:	687b      	ldr	r3, [r7, #4]
 8001b6a:	4a16      	ldr	r2, [pc, #88]	@ (8001bc4 <USART_GetHandleFromInstance+0xb8>)
 8001b6c:	4293      	cmp	r3, r2
 8001b6e:	d102      	bne.n	8001b76 <USART_GetHandleFromInstance+0x6a>
	{
		return s_UART7Handle;
 8001b70:	4b15      	ldr	r3, [pc, #84]	@ (8001bc8 <USART_GetHandleFromInstance+0xbc>)
 8001b72:	681b      	ldr	r3, [r3, #0]
 8001b74:	e007      	b.n	8001b86 <USART_GetHandleFromInstance+0x7a>
	}
	else if (pUSARTx == UART8)
 8001b76:	687b      	ldr	r3, [r7, #4]
 8001b78:	4a14      	ldr	r2, [pc, #80]	@ (8001bcc <USART_GetHandleFromInstance+0xc0>)
 8001b7a:	4293      	cmp	r3, r2
 8001b7c:	d102      	bne.n	8001b84 <USART_GetHandleFromInstance+0x78>
	{
		return s_UART8Handle;
 8001b7e:	4b14      	ldr	r3, [pc, #80]	@ (8001bd0 <USART_GetHandleFromInstance+0xc4>)
 8001b80:	681b      	ldr	r3, [r3, #0]
 8001b82:	e000      	b.n	8001b86 <USART_GetHandleFromInstance+0x7a>
	}

	return 0;
 8001b84:	2300      	movs	r3, #0
}
 8001b86:	4618      	mov	r0, r3
 8001b88:	370c      	adds	r7, #12
 8001b8a:	46bd      	mov	sp, r7
 8001b8c:	f85d 7b04 	ldr.w	r7, [sp], #4
 8001b90:	4770      	bx	lr
 8001b92:	bf00      	nop
 8001b94:	40011000 	.word	0x40011000
 8001b98:	2000008c 	.word	0x2000008c
 8001b9c:	40004400 	.word	0x40004400
 8001ba0:	20000090 	.word	0x20000090
 8001ba4:	40004800 	.word	0x40004800
 8001ba8:	20000094 	.word	0x20000094
 8001bac:	40004c00 	.word	0x40004c00
 8001bb0:	20000098 	.word	0x20000098
 8001bb4:	40005000 	.word	0x40005000
 8001bb8:	2000009c 	.word	0x2000009c
 8001bbc:	40011400 	.word	0x40011400
 8001bc0:	200000a0 	.word	0x200000a0
 8001bc4:	40007800 	.word	0x40007800
 8001bc8:	200000a4 	.word	0x200000a4
 8001bcc:	40007c00 	.word	0x40007c00
 8001bd0:	200000a8 	.word	0x200000a8

08001bd4 <USART_GetDataMask>:
			UART8_PCLK_DI();
		}
	}
}
static uint16_t USART_GetDataMask(USART_Handle_t *pUSARTHandle)
{
 8001bd4:	b480      	push	{r7}
 8001bd6:	b083      	sub	sp, #12
 8001bd8:	af00      	add	r7, sp, #0
 8001bda:	6078      	str	r0, [r7, #4]
	if (pUSARTHandle->USART_Config.USART_ParityControl != USART_PARITY_DISABLE)
 8001bdc:	687b      	ldr	r3, [r7, #4]
 8001bde:	7b9b      	ldrb	r3, [r3, #14]
 8001be0:	2b00      	cmp	r3, #0
 8001be2:	d00d      	beq.n	8001c00 <USART_GetDataMask+0x2c>
	{
		if (pUSARTHandle->USART_Config.USART_WordLength == USART_WORDLEN_9BITS)
 8001be4:	687b      	ldr	r3, [r7, #4]
 8001be6:	7b1b      	ldrb	r3, [r3, #12]
 8001be8:	2b09      	cmp	r3, #9
 8001bea:	d101      	bne.n	8001bf0 <USART_GetDataMask+0x1c>
		{
			return 0x00FFU;   /* 8 data bits + parity */
 8001bec:	23ff      	movs	r3, #255	@ 0xff
 8001bee:	e015      	b.n	8001c1c <USART_GetDataMask+0x48>
		}
		else if (pUSARTHandle->USART_Config.USART_WordLength == USART_WORDLEN_8BITS)
 8001bf0:	687b      	ldr	r3, [r7, #4]
 8001bf2:	7b1b      	ldrb	r3, [r3, #12]
 8001bf4:	2b08      	cmp	r3, #8
 8001bf6:	d101      	bne.n	8001bfc <USART_GetDataMask+0x28>
		{
			return 0x007FU;   /* 7 data bits + parity */
 8001bf8:	237f      	movs	r3, #127	@ 0x7f
 8001bfa:	e00f      	b.n	8001c1c <USART_GetDataMask+0x48>
		}
		else
		{
			return 0x003FU;   /* 6 data bits + parity */
 8001bfc:	233f      	movs	r3, #63	@ 0x3f
 8001bfe:	e00d      	b.n	8001c1c <USART_GetDataMask+0x48>
		}
	}
	else
	{
		if (pUSARTHandle->USART_Config.USART_WordLength == USART_WORDLEN_9BITS)
 8001c00:	687b      	ldr	r3, [r7, #4]
 8001c02:	7b1b      	ldrb	r3, [r3, #12]
 8001c04:	2b09      	cmp	r3, #9
 8001c06:	d102      	bne.n	8001c0e <USART_GetDataMask+0x3a>
		{
			return 0x01FFU;   /* 9 data bits, needs uint16_t API */
 8001c08:	f240 13ff 	movw	r3, #511	@ 0x1ff
 8001c0c:	e006      	b.n	8001c1c <USART_GetDataMask+0x48>
		}
		else if (pUSARTHandle->USART_Config.USART_WordLength == USART_WORDLEN_8BITS)
 8001c0e:	687b      	ldr	r3, [r7, #4]
 8001c10:	7b1b      	ldrb	r3, [r3, #12]
 8001c12:	2b08      	cmp	r3, #8
 8001c14:	d101      	bne.n	8001c1a <USART_GetDataMask+0x46>
		{
			return 0x00FFU;
 8001c16:	23ff      	movs	r3, #255	@ 0xff
 8001c18:	e000      	b.n	8001c1c <USART_GetDataMask+0x48>
		}
		else
		{
			return 0x007FU;
 8001c1a:	237f      	movs	r3, #127	@ 0x7f
		}
	}
}
 8001c1c:	4618      	mov	r0, r3
 8001c1e:	370c      	adds	r7, #12
 8001c20:	46bd      	mov	sp, r7
 8001c22:	f85d 7b04 	ldr.w	r7, [sp], #4
 8001c26:	4770      	bx	lr

08001c28 <USART_CloseTransmission>:
	pUSARTHandle->RxOverflow = 0U;

	return USART_STATUS_OK;
}
void USART_CloseTransmission(USART_Handle_t *pUSARTHandle)
{
 8001c28:	b480      	push	{r7}
 8001c2a:	b083      	sub	sp, #12
 8001c2c:	af00      	add	r7, sp, #0
 8001c2e:	6078      	str	r0, [r7, #4]
	if(pUSARTHandle == 0)
 8001c30:	687b      	ldr	r3, [r7, #4]
 8001c32:	2b00      	cmp	r3, #0
 8001c34:	d019      	beq.n	8001c6a <USART_CloseTransmission+0x42>
	{
		return;
	}

	pUSARTHandle->pUSARTx->USART_CR1 &= ~(1U << USART_CR1_TXEIE);
 8001c36:	687b      	ldr	r3, [r7, #4]
 8001c38:	681b      	ldr	r3, [r3, #0]
 8001c3a:	681a      	ldr	r2, [r3, #0]
 8001c3c:	687b      	ldr	r3, [r7, #4]
 8001c3e:	681b      	ldr	r3, [r3, #0]
 8001c40:	f022 0280 	bic.w	r2, r2, #128	@ 0x80
 8001c44:	601a      	str	r2, [r3, #0]
	pUSARTHandle->pUSARTx->USART_CR1 &= ~(1U << USART_CR1_TCIE);
 8001c46:	687b      	ldr	r3, [r7, #4]
 8001c48:	681b      	ldr	r3, [r3, #0]
 8001c4a:	681a      	ldr	r2, [r3, #0]
 8001c4c:	687b      	ldr	r3, [r7, #4]
 8001c4e:	681b      	ldr	r3, [r3, #0]
 8001c50:	f022 0240 	bic.w	r2, r2, #64	@ 0x40
 8001c54:	601a      	str	r2, [r3, #0]

	pUSARTHandle->pTxBuffer = 0;
 8001c56:	687b      	ldr	r3, [r7, #4]
 8001c58:	2200      	movs	r2, #0
 8001c5a:	615a      	str	r2, [r3, #20]
	pUSARTHandle->TxLen = 0;
 8001c5c:	687b      	ldr	r3, [r7, #4]
 8001c5e:	2200      	movs	r2, #0
 8001c60:	619a      	str	r2, [r3, #24]
	pUSARTHandle->TxBusyState = USART_READY;
 8001c62:	687b      	ldr	r3, [r7, #4]
 8001c64:	2200      	movs	r2, #0
 8001c66:	771a      	strb	r2, [r3, #28]
 8001c68:	e000      	b.n	8001c6c <USART_CloseTransmission+0x44>
		return;
 8001c6a:	bf00      	nop
}
 8001c6c:	370c      	adds	r7, #12
 8001c6e:	46bd      	mov	sp, r7
 8001c70:	f85d 7b04 	ldr.w	r7, [sp], #4
 8001c74:	4770      	bx	lr

08001c76 <USART_RxRingBufferPush>:

	return count;
}
static void USART_RxRingBufferPush(USART_Handle_t *pUSARTHandle,
								   uint8_t data)
{
 8001c76:	b580      	push	{r7, lr}
 8001c78:	b084      	sub	sp, #16
 8001c7a:	af00      	add	r7, sp, #0
 8001c7c:	6078      	str	r0, [r7, #4]
 8001c7e:	460b      	mov	r3, r1
 8001c80:	70fb      	strb	r3, [r7, #3]
	uint16_t next_head;

	if ((pUSARTHandle == 0) || (pUSARTHandle->pRxRingBuffer == 0))
 8001c82:	687b      	ldr	r3, [r7, #4]
 8001c84:	2b00      	cmp	r3, #0
 8001c86:	d02a      	beq.n	8001cde <USART_RxRingBufferPush+0x68>
 8001c88:	687b      	ldr	r3, [r7, #4]
 8001c8a:	6a1b      	ldr	r3, [r3, #32]
 8001c8c:	2b00      	cmp	r3, #0
 8001c8e:	d026      	beq.n	8001cde <USART_RxRingBufferPush+0x68>
	{
		return;
	}

	next_head = pUSARTHandle->RxHead + 1U;
 8001c90:	687b      	ldr	r3, [r7, #4]
 8001c92:	8cdb      	ldrh	r3, [r3, #38]	@ 0x26
 8001c94:	b29b      	uxth	r3, r3
 8001c96:	3301      	adds	r3, #1
 8001c98:	81fb      	strh	r3, [r7, #14]

	if (next_head >= pUSARTHandle->RxRingBufferSize)
 8001c9a:	687b      	ldr	r3, [r7, #4]
 8001c9c:	8c9b      	ldrh	r3, [r3, #36]	@ 0x24
 8001c9e:	89fa      	ldrh	r2, [r7, #14]
 8001ca0:	429a      	cmp	r2, r3
 8001ca2:	d301      	bcc.n	8001ca8 <USART_RxRingBufferPush+0x32>
	{
		next_head = 0U;
 8001ca4:	2300      	movs	r3, #0
 8001ca6:	81fb      	strh	r3, [r7, #14]
	}

	if (next_head == pUSARTHandle->RxTail)
 8001ca8:	687b      	ldr	r3, [r7, #4]
 8001caa:	8d1b      	ldrh	r3, [r3, #40]	@ 0x28
 8001cac:	b29b      	uxth	r3, r3
 8001cae:	89fa      	ldrh	r2, [r7, #14]
 8001cb0:	429a      	cmp	r2, r3
 8001cb2:	d108      	bne.n	8001cc6 <USART_RxRingBufferPush+0x50>
	{
		pUSARTHandle->RxOverflow = 1U;
 8001cb4:	687b      	ldr	r3, [r7, #4]
 8001cb6:	2201      	movs	r2, #1
 8001cb8:	f883 202a 	strb.w	r2, [r3, #42]	@ 0x2a
		USART_ApplicationEventCallback(pUSARTHandle, USART_EVENT_RX_OVERFLOW);
 8001cbc:	2101      	movs	r1, #1
 8001cbe:	6878      	ldr	r0, [r7, #4]
 8001cc0:	f000 f8f9 	bl	8001eb6 <USART_ApplicationEventCallback>
		return;
 8001cc4:	e00c      	b.n	8001ce0 <USART_RxRingBufferPush+0x6a>
	}

	pUSARTHandle->pRxRingBuffer[pUSARTHandle->RxHead] = data;
 8001cc6:	687b      	ldr	r3, [r7, #4]
 8001cc8:	6a1b      	ldr	r3, [r3, #32]
 8001cca:	687a      	ldr	r2, [r7, #4]
 8001ccc:	8cd2      	ldrh	r2, [r2, #38]	@ 0x26
 8001cce:	b292      	uxth	r2, r2
 8001cd0:	4413      	add	r3, r2
 8001cd2:	78fa      	ldrb	r2, [r7, #3]
 8001cd4:	701a      	strb	r2, [r3, #0]
	pUSARTHandle->RxHead = next_head;
 8001cd6:	687b      	ldr	r3, [r7, #4]
 8001cd8:	89fa      	ldrh	r2, [r7, #14]
 8001cda:	84da      	strh	r2, [r3, #38]	@ 0x26
 8001cdc:	e000      	b.n	8001ce0 <USART_RxRingBufferPush+0x6a>
		return;
 8001cde:	bf00      	nop
}
 8001ce0:	3710      	adds	r7, #16
 8001ce2:	46bd      	mov	sp, r7
 8001ce4:	bd80      	pop	{r7, pc}

08001ce6 <USART_IRQHandling>:
void USART_IRQHandling(USART_RegDef_t *pUSARTx)
{
 8001ce6:	b580      	push	{r7, lr}
 8001ce8:	b088      	sub	sp, #32
 8001cea:	af00      	add	r7, sp, #0
 8001cec:	6078      	str	r0, [r7, #4]
	uint32_t cr1;
	uint32_t cr3;
	uint16_t data_mask;
	uint8_t rx_data;

	pUSARTHandle = USART_GetHandleFromInstance(pUSARTx);
 8001cee:	6878      	ldr	r0, [r7, #4]
 8001cf0:	f7ff ff0c 	bl	8001b0c <USART_GetHandleFromInstance>
 8001cf4:	61f8      	str	r0, [r7, #28]

	if (pUSARTHandle == 0)
 8001cf6:	69fb      	ldr	r3, [r7, #28]
 8001cf8:	2b00      	cmp	r3, #0
 8001cfa:	f000 80d8 	beq.w	8001eae <USART_IRQHandling+0x1c8>
	{
		return;
	}

	isr = pUSARTx->USART_ISR;
 8001cfe:	687b      	ldr	r3, [r7, #4]
 8001d00:	69db      	ldr	r3, [r3, #28]
 8001d02:	61bb      	str	r3, [r7, #24]
	cr1 = pUSARTx->USART_CR1;
 8001d04:	687b      	ldr	r3, [r7, #4]
 8001d06:	681b      	ldr	r3, [r3, #0]
 8001d08:	617b      	str	r3, [r7, #20]
	cr3 = pUSARTx->USART_CR3;
 8001d0a:	687b      	ldr	r3, [r7, #4]
 8001d0c:	689b      	ldr	r3, [r3, #8]
 8001d0e:	613b      	str	r3, [r7, #16]

	/*
	 * Parity error
	 */
	if ((isr & USART_FLAG_PE) && (cr1 & (1U << USART_CR1_PEIE)))
 8001d10:	69bb      	ldr	r3, [r7, #24]
 8001d12:	f003 0301 	and.w	r3, r3, #1
 8001d16:	2b00      	cmp	r3, #0
 8001d18:	d00b      	beq.n	8001d32 <USART_IRQHandling+0x4c>
 8001d1a:	697b      	ldr	r3, [r7, #20]
 8001d1c:	f403 7380 	and.w	r3, r3, #256	@ 0x100
 8001d20:	2b00      	cmp	r3, #0
 8001d22:	d006      	beq.n	8001d32 <USART_IRQHandling+0x4c>
	{
		pUSARTx->USART_ICR = (1U << USART_ICR_PECF);
 8001d24:	687b      	ldr	r3, [r7, #4]
 8001d26:	2201      	movs	r2, #1
 8001d28:	621a      	str	r2, [r3, #32]
		USART_ApplicationEventCallback(pUSARTHandle, USART_EVENT_PARITY_ERROR);
 8001d2a:	2102      	movs	r1, #2
 8001d2c:	69f8      	ldr	r0, [r7, #28]
 8001d2e:	f000 f8c2 	bl	8001eb6 <USART_ApplicationEventCallback>
	}

	/*
	 * Framing error
	 */
	if ((isr & USART_FLAG_FE) && (cr3 & (1U << USART_CR3_EIE)))
 8001d32:	69bb      	ldr	r3, [r7, #24]
 8001d34:	f003 0302 	and.w	r3, r3, #2
 8001d38:	2b00      	cmp	r3, #0
 8001d3a:	d00b      	beq.n	8001d54 <USART_IRQHandling+0x6e>
 8001d3c:	693b      	ldr	r3, [r7, #16]
 8001d3e:	f003 0301 	and.w	r3, r3, #1
 8001d42:	2b00      	cmp	r3, #0
 8001d44:	d006      	beq.n	8001d54 <USART_IRQHandling+0x6e>
	{
		pUSARTx->USART_ICR = (1U << USART_ICR_FECF);
 8001d46:	687b      	ldr	r3, [r7, #4]
 8001d48:	2202      	movs	r2, #2
 8001d4a:	621a      	str	r2, [r3, #32]
		USART_ApplicationEventCallback(pUSARTHandle, USART_EVENT_FRAME_ERROR);
 8001d4c:	2103      	movs	r1, #3
 8001d4e:	69f8      	ldr	r0, [r7, #28]
 8001d50:	f000 f8b1 	bl	8001eb6 <USART_ApplicationEventCallback>
	}

	/*
	 * Noise error
	 */
	if ((isr & USART_FLAG_NE) && (cr3 & (1U << USART_CR3_EIE)))
 8001d54:	69bb      	ldr	r3, [r7, #24]
 8001d56:	f003 0304 	and.w	r3, r3, #4
 8001d5a:	2b00      	cmp	r3, #0
 8001d5c:	d00b      	beq.n	8001d76 <USART_IRQHandling+0x90>
 8001d5e:	693b      	ldr	r3, [r7, #16]
 8001d60:	f003 0301 	and.w	r3, r3, #1
 8001d64:	2b00      	cmp	r3, #0
 8001d66:	d006      	beq.n	8001d76 <USART_IRQHandling+0x90>
	{
		pUSARTx->USART_ICR = (1U << USART_ICR_NCF);
 8001d68:	687b      	ldr	r3, [r7, #4]
 8001d6a:	2204      	movs	r2, #4
 8001d6c:	621a      	str	r2, [r3, #32]
		USART_ApplicationEventCallback(pUSARTHandle, USART_EVENT_NOISE_ERROR);
 8001d6e:	2104      	movs	r1, #4
 8001d70:	69f8      	ldr	r0, [r7, #28]
 8001d72:	f000 f8a0 	bl	8001eb6 <USART_ApplicationEventCallback>
	}

	/*
	 * Overrun error
	 */
	if ((isr & USART_FLAG_ORE) && (cr3 & (1U << USART_CR3_EIE)))
 8001d76:	69bb      	ldr	r3, [r7, #24]
 8001d78:	f003 0308 	and.w	r3, r3, #8
 8001d7c:	2b00      	cmp	r3, #0
 8001d7e:	d00f      	beq.n	8001da0 <USART_IRQHandling+0xba>
 8001d80:	693b      	ldr	r3, [r7, #16]
 8001d82:	f003 0301 	and.w	r3, r3, #1
 8001d86:	2b00      	cmp	r3, #0
 8001d88:	d00a      	beq.n	8001da0 <USART_IRQHandling+0xba>
	{
		volatile uint32_t dummy;
		dummy = pUSARTx->USART_RDR; //RDR dummy read for clean RDR
 8001d8a:	687b      	ldr	r3, [r7, #4]
 8001d8c:	6a5b      	ldr	r3, [r3, #36]	@ 0x24
 8001d8e:	60bb      	str	r3, [r7, #8]
		(void)dummy;
 8001d90:	68bb      	ldr	r3, [r7, #8]

		pUSARTx->USART_ICR = (1U << USART_ICR_ORECF);
 8001d92:	687b      	ldr	r3, [r7, #4]
 8001d94:	2208      	movs	r2, #8
 8001d96:	621a      	str	r2, [r3, #32]
		USART_ApplicationEventCallback(pUSARTHandle, USART_EVENT_OVERRUN_ERROR);
 8001d98:	2105      	movs	r1, #5
 8001d9a:	69f8      	ldr	r0, [r7, #28]
 8001d9c:	f000 f88b 	bl	8001eb6 <USART_ApplicationEventCallback>
	}

	/*
	 * RXNE interrupt
	 */
	if ((isr & USART_FLAG_RXNE) && (cr1 & (1U << USART_CR1_RXNEIE)))
 8001da0:	69bb      	ldr	r3, [r7, #24]
 8001da2:	f003 0320 	and.w	r3, r3, #32
 8001da6:	2b00      	cmp	r3, #0
 8001da8:	d019      	beq.n	8001dde <USART_IRQHandling+0xf8>
 8001daa:	697b      	ldr	r3, [r7, #20]
 8001dac:	f003 0320 	and.w	r3, r3, #32
 8001db0:	2b00      	cmp	r3, #0
 8001db2:	d014      	beq.n	8001dde <USART_IRQHandling+0xf8>
	{
		data_mask = USART_GetDataMask(pUSARTHandle);
 8001db4:	69f8      	ldr	r0, [r7, #28]
 8001db6:	f7ff ff0d 	bl	8001bd4 <USART_GetDataMask>
 8001dba:	4603      	mov	r3, r0
 8001dbc:	81fb      	strh	r3, [r7, #14]

		rx_data = (uint8_t)(pUSARTx->USART_RDR & data_mask);
 8001dbe:	687b      	ldr	r3, [r7, #4]
 8001dc0:	6a5b      	ldr	r3, [r3, #36]	@ 0x24
 8001dc2:	b2da      	uxtb	r2, r3
 8001dc4:	89fb      	ldrh	r3, [r7, #14]
 8001dc6:	b2db      	uxtb	r3, r3
 8001dc8:	4013      	ands	r3, r2
 8001dca:	737b      	strb	r3, [r7, #13]

		USART_RxRingBufferPush(pUSARTHandle, rx_data);
 8001dcc:	7b7b      	ldrb	r3, [r7, #13]
 8001dce:	4619      	mov	r1, r3
 8001dd0:	69f8      	ldr	r0, [r7, #28]
 8001dd2:	f7ff ff50 	bl	8001c76 <USART_RxRingBufferPush>

		USART_ApplicationEventCallback(pUSARTHandle,USART_EVENT_RX_BYTE_RECEIVED);
 8001dd6:	2100      	movs	r1, #0
 8001dd8:	69f8      	ldr	r0, [r7, #28]
 8001dda:	f000 f86c 	bl	8001eb6 <USART_ApplicationEventCallback>
	/*
	 * Idle interrupt
	 * Idle = 1 means RX line has been Idle after receiving data.
	 * It useful for variable length packet detection.
	 */
	if((isr & USART_FLAG_IDLE) && (cr1 & (1U << USART_CR1_IDLEIE)))
 8001dde:	69bb      	ldr	r3, [r7, #24]
 8001de0:	f003 0310 	and.w	r3, r3, #16
 8001de4:	2b00      	cmp	r3, #0
 8001de6:	d00b      	beq.n	8001e00 <USART_IRQHandling+0x11a>
 8001de8:	697b      	ldr	r3, [r7, #20]
 8001dea:	f003 0310 	and.w	r3, r3, #16
 8001dee:	2b00      	cmp	r3, #0
 8001df0:	d006      	beq.n	8001e00 <USART_IRQHandling+0x11a>
	{
		pUSARTx->USART_ICR = (1U << USART_ICR_IDLECF);
 8001df2:	687b      	ldr	r3, [r7, #4]
 8001df4:	2210      	movs	r2, #16
 8001df6:	621a      	str	r2, [r3, #32]

		USART_ApplicationEventCallback(pUSARTHandle, USART_EVENT_IDLE);
 8001df8:	2107      	movs	r1, #7
 8001dfa:	69f8      	ldr	r0, [r7, #28]
 8001dfc:	f000 f85b 	bl	8001eb6 <USART_ApplicationEventCallback>
	}

	/*
	 * TXE interrupt event
	 */
	if((isr & USART_FLAG_TXE) && (cr1 & (1U << USART_CR1_TXEIE)))
 8001e00:	69bb      	ldr	r3, [r7, #24]
 8001e02:	f003 0380 	and.w	r3, r3, #128	@ 0x80
 8001e06:	2b00      	cmp	r3, #0
 8001e08:	d03c      	beq.n	8001e84 <USART_IRQHandling+0x19e>
 8001e0a:	697b      	ldr	r3, [r7, #20]
 8001e0c:	f003 0380 	and.w	r3, r3, #128	@ 0x80
 8001e10:	2b00      	cmp	r3, #0
 8001e12:	d037      	beq.n	8001e84 <USART_IRQHandling+0x19e>
	{
		if((pUSARTHandle->TxBusyState == USART_BUSY_IN_TX) && (pUSARTHandle->TxLen > 0U))
 8001e14:	69fb      	ldr	r3, [r7, #28]
 8001e16:	7f1b      	ldrb	r3, [r3, #28]
 8001e18:	b2db      	uxtb	r3, r3
 8001e1a:	2b01      	cmp	r3, #1
 8001e1c:	d12c      	bne.n	8001e78 <USART_IRQHandling+0x192>
 8001e1e:	69fb      	ldr	r3, [r7, #28]
 8001e20:	699b      	ldr	r3, [r3, #24]
 8001e22:	2b00      	cmp	r3, #0
 8001e24:	d028      	beq.n	8001e78 <USART_IRQHandling+0x192>
		{
			data_mask = USART_GetDataMask(pUSARTHandle);
 8001e26:	69f8      	ldr	r0, [r7, #28]
 8001e28:	f7ff fed4 	bl	8001bd4 <USART_GetDataMask>
 8001e2c:	4603      	mov	r3, r0
 8001e2e:	81fb      	strh	r3, [r7, #14]

			pUSARTx->USART_TDR = ((uint16_t)(*(pUSARTHandle->pTxBuffer)) & data_mask);
 8001e30:	69fb      	ldr	r3, [r7, #28]
 8001e32:	695b      	ldr	r3, [r3, #20]
 8001e34:	781b      	ldrb	r3, [r3, #0]
 8001e36:	461a      	mov	r2, r3
 8001e38:	89fb      	ldrh	r3, [r7, #14]
 8001e3a:	4013      	ands	r3, r2
 8001e3c:	461a      	mov	r2, r3
 8001e3e:	687b      	ldr	r3, [r7, #4]
 8001e40:	629a      	str	r2, [r3, #40]	@ 0x28
			pUSARTHandle->pTxBuffer++;
 8001e42:	69fb      	ldr	r3, [r7, #28]
 8001e44:	695b      	ldr	r3, [r3, #20]
 8001e46:	1c5a      	adds	r2, r3, #1
 8001e48:	69fb      	ldr	r3, [r7, #28]
 8001e4a:	615a      	str	r2, [r3, #20]
			pUSARTHandle->TxLen--;
 8001e4c:	69fb      	ldr	r3, [r7, #28]
 8001e4e:	699b      	ldr	r3, [r3, #24]
 8001e50:	1e5a      	subs	r2, r3, #1
 8001e52:	69fb      	ldr	r3, [r7, #28]
 8001e54:	619a      	str	r2, [r3, #24]

			if(pUSARTHandle->TxLen == 0U)
 8001e56:	69fb      	ldr	r3, [r7, #28]
 8001e58:	699b      	ldr	r3, [r3, #24]
 8001e5a:	2b00      	cmp	r3, #0
 8001e5c:	d112      	bne.n	8001e84 <USART_IRQHandling+0x19e>
			{
				//Disable TXE and wait for TC
				pUSARTx->USART_CR1 &= ~(1U << USART_CR1_TXEIE);
 8001e5e:	687b      	ldr	r3, [r7, #4]
 8001e60:	681b      	ldr	r3, [r3, #0]
 8001e62:	f023 0280 	bic.w	r2, r3, #128	@ 0x80
 8001e66:	687b      	ldr	r3, [r7, #4]
 8001e68:	601a      	str	r2, [r3, #0]
				pUSARTx->USART_CR1 |= (1U << USART_CR1_TCIE);
 8001e6a:	687b      	ldr	r3, [r7, #4]
 8001e6c:	681b      	ldr	r3, [r3, #0]
 8001e6e:	f043 0240 	orr.w	r2, r3, #64	@ 0x40
 8001e72:	687b      	ldr	r3, [r7, #4]
 8001e74:	601a      	str	r2, [r3, #0]
			if(pUSARTHandle->TxLen == 0U)
 8001e76:	e005      	b.n	8001e84 <USART_IRQHandling+0x19e>
			}
		}
		else
		{
			pUSARTx->USART_CR1 &= ~(1U << USART_CR1_TXEIE);
 8001e78:	687b      	ldr	r3, [r7, #4]
 8001e7a:	681b      	ldr	r3, [r3, #0]
 8001e7c:	f023 0280 	bic.w	r2, r3, #128	@ 0x80
 8001e80:	687b      	ldr	r3, [r7, #4]
 8001e82:	601a      	str	r2, [r3, #0]
	}

	/*
	 * TCE interrupt event
	 */
	 if((isr & USART_FLAG_TC) && (cr1 & (1U << USART_CR1_TCIE)))
 8001e84:	69bb      	ldr	r3, [r7, #24]
 8001e86:	f003 0340 	and.w	r3, r3, #64	@ 0x40
 8001e8a:	2b00      	cmp	r3, #0
 8001e8c:	d010      	beq.n	8001eb0 <USART_IRQHandling+0x1ca>
 8001e8e:	697b      	ldr	r3, [r7, #20]
 8001e90:	f003 0340 	and.w	r3, r3, #64	@ 0x40
 8001e94:	2b00      	cmp	r3, #0
 8001e96:	d00b      	beq.n	8001eb0 <USART_IRQHandling+0x1ca>
	 {
		 pUSARTx->USART_ICR = (1U << USART_ICR_TCCF);
 8001e98:	687b      	ldr	r3, [r7, #4]
 8001e9a:	2240      	movs	r2, #64	@ 0x40
 8001e9c:	621a      	str	r2, [r3, #32]

		 USART_CloseTransmission(pUSARTHandle);
 8001e9e:	69f8      	ldr	r0, [r7, #28]
 8001ea0:	f7ff fec2 	bl	8001c28 <USART_CloseTransmission>

		 USART_ApplicationEventCallback(pUSARTHandle, USART_EVENT_TX_CMPLT);
 8001ea4:	2106      	movs	r1, #6
 8001ea6:	69f8      	ldr	r0, [r7, #28]
 8001ea8:	f000 f805 	bl	8001eb6 <USART_ApplicationEventCallback>
 8001eac:	e000      	b.n	8001eb0 <USART_IRQHandling+0x1ca>
		return;
 8001eae:	bf00      	nop
	 }

	}
 8001eb0:	3720      	adds	r7, #32
 8001eb2:	46bd      	mov	sp, r7
 8001eb4:	bd80      	pop	{r7, pc}

08001eb6 <USART_ApplicationEventCallback>:

__attribute__((weak)) void USART_ApplicationEventCallback(USART_Handle_t *pUSARTHandle,uint8_t Event)
{
 8001eb6:	b480      	push	{r7}
 8001eb8:	b083      	sub	sp, #12
 8001eba:	af00      	add	r7, sp, #0
 8001ebc:	6078      	str	r0, [r7, #4]
 8001ebe:	460b      	mov	r3, r1
 8001ec0:	70fb      	strb	r3, [r7, #3]
	(void)pUSARTHandle;
	(void)Event;
}
 8001ec2:	bf00      	nop
 8001ec4:	370c      	adds	r7, #12
 8001ec6:	46bd      	mov	sp, r7
 8001ec8:	f85d 7b04 	ldr.w	r7, [sp], #4
 8001ecc:	4770      	bx	lr
	...

08001ed0 <I2C1_GPIOInits>:
static volatile uint32_t g_i2c1_final_isr = 0U;
static volatile uint32_t g_i2c1_final_cr1 = 0U;
static volatile uint32_t g_i2c1_final_cr2 = 0U;

static void I2C1_GPIOInits(void)
{
 8001ed0:	b580      	push	{r7, lr}
 8001ed2:	b084      	sub	sp, #16
 8001ed4:	af00      	add	r7, sp, #0
     * I2C1:
     * PB8 -> SCL
     * PB9 -> SDA
     * AF4, open-drain, internal pull-up.
     */
    GpioI2C.pGPIOx = GPIOB;
 8001ed6:	4b0e      	ldr	r3, [pc, #56]	@ (8001f10 <I2C1_GPIOInits+0x40>)
 8001ed8:	607b      	str	r3, [r7, #4]

    GpioI2C.GPIO_PinConfig.GPIO_PinMode = GPIO_MODE_ALTFN;
 8001eda:	2302      	movs	r3, #2
 8001edc:	727b      	strb	r3, [r7, #9]
    GpioI2C.GPIO_PinConfig.GPIO_PinAltFunMode = 4U;
 8001ede:	2304      	movs	r3, #4
 8001ee0:	737b      	strb	r3, [r7, #13]
    GpioI2C.GPIO_PinConfig.GPIO_PinOPType = GPIO_OP_TYPE_OD;
 8001ee2:	2301      	movs	r3, #1
 8001ee4:	733b      	strb	r3, [r7, #12]
    GpioI2C.GPIO_PinConfig.GPIO_PinPuPdControl = GPIO_PIN_PU;
 8001ee6:	2301      	movs	r3, #1
 8001ee8:	72fb      	strb	r3, [r7, #11]
    GpioI2C.GPIO_PinConfig.GPIO_PinSpeed = GPIO_SPEED_FAST;
 8001eea:	2302      	movs	r3, #2
 8001eec:	72bb      	strb	r3, [r7, #10]

    GpioI2C.GPIO_PinConfig.GPIO_PinNumber = GPIO_PIN_NO_8;
 8001eee:	2308      	movs	r3, #8
 8001ef0:	723b      	strb	r3, [r7, #8]
    GPIO_Init(&GpioI2C);
 8001ef2:	1d3b      	adds	r3, r7, #4
 8001ef4:	4618      	mov	r0, r3
 8001ef6:	f7fe fc29 	bl	800074c <GPIO_Init>

    GpioI2C.GPIO_PinConfig.GPIO_PinNumber = GPIO_PIN_NO_9;
 8001efa:	2309      	movs	r3, #9
 8001efc:	723b      	strb	r3, [r7, #8]
    GPIO_Init(&GpioI2C);
 8001efe:	1d3b      	adds	r3, r7, #4
 8001f00:	4618      	mov	r0, r3
 8001f02:	f7fe fc23 	bl	800074c <GPIO_Init>
}
 8001f06:	bf00      	nop
 8001f08:	3710      	adds	r7, #16
 8001f0a:	46bd      	mov	sp, r7
 8001f0c:	bd80      	pop	{r7, pc}
 8001f0e:	bf00      	nop
 8001f10:	40020400 	.word	0x40020400

08001f14 <I2C1_Inits>:

static void I2C1_Inits(void)
{
 8001f14:	b580      	push	{r7, lr}
 8001f16:	af00      	add	r7, sp, #0
    I2C1Handle.pI2Cx = I2C1;
 8001f18:	4b09      	ldr	r3, [pc, #36]	@ (8001f40 <I2C1_Inits+0x2c>)
 8001f1a:	4a0a      	ldr	r2, [pc, #40]	@ (8001f44 <I2C1_Inits+0x30>)
 8001f1c:	601a      	str	r2, [r3, #0]

    I2C1Handle.I2C_Config.I2C_Timing = I2C_TIMING_16MHZ_100KHZ;
 8001f1e:	4b08      	ldr	r3, [pc, #32]	@ (8001f40 <I2C1_Inits+0x2c>)
 8001f20:	4a09      	ldr	r2, [pc, #36]	@ (8001f48 <I2C1_Inits+0x34>)
 8001f22:	605a      	str	r2, [r3, #4]
    I2C1Handle.I2C_Config.I2C_AnalogFilter = I2C_ANALOG_FILTER_ENABLE;
 8001f24:	4b06      	ldr	r3, [pc, #24]	@ (8001f40 <I2C1_Inits+0x2c>)
 8001f26:	2200      	movs	r2, #0
 8001f28:	721a      	strb	r2, [r3, #8]
    I2C1Handle.I2C_Config.I2C_DigitalFilter = 0U;
 8001f2a:	4b05      	ldr	r3, [pc, #20]	@ (8001f40 <I2C1_Inits+0x2c>)
 8001f2c:	2200      	movs	r2, #0
 8001f2e:	725a      	strb	r2, [r3, #9]
    I2C1Handle.I2C_Config.I2C_ClockStretch = I2C_CLOCK_STRETCH_ENABLE;
 8001f30:	4b03      	ldr	r3, [pc, #12]	@ (8001f40 <I2C1_Inits+0x2c>)
 8001f32:	2200      	movs	r2, #0
 8001f34:	729a      	strb	r2, [r3, #10]

    I2C_Init(&I2C1Handle);
 8001f36:	4802      	ldr	r0, [pc, #8]	@ (8001f40 <I2C1_Inits+0x2c>)
 8001f38:	f7fe ff58 	bl	8000dec <I2C_Init>
}
 8001f3c:	bf00      	nop
 8001f3e:	bd80      	pop	{r7, pc}
 8001f40:	200000ac 	.word	0x200000ac
 8001f44:	40005400 	.word	0x40005400
 8001f48:	30420f13 	.word	0x30420f13

08001f4c <EX029_I2C1_IT_WriteRead_NACK_Test>:

void EX029_I2C1_IT_WriteRead_NACK_Test(void)
{
 8001f4c:	b580      	push	{r7, lr}
 8001f4e:	b088      	sub	sp, #32
 8001f50:	af04      	add	r7, sp, #16
    uint8_t status;
    uint32_t start_tick;

    SysTick_Init(16000000U);
 8001f52:	485f      	ldr	r0, [pc, #380]	@ (80020d0 <EX029_I2C1_IT_WriteRead_NACK_Test+0x184>)
 8001f54:	f7ff fd88 	bl	8001a68 <SysTick_Init>

    I2C1_GPIOInits();
 8001f58:	f7ff ffba 	bl	8001ed0 <I2C1_GPIOInits>
    I2C1_Inits();
 8001f5c:	f7ff ffda 	bl	8001f14 <I2C1_Inits>

    for (uint32_t i = 0U; i < sizeof(g_i2c1_rx_buffer); i++)
 8001f60:	2300      	movs	r3, #0
 8001f62:	60fb      	str	r3, [r7, #12]
 8001f64:	e007      	b.n	8001f76 <EX029_I2C1_IT_WriteRead_NACK_Test+0x2a>
    {
        g_i2c1_rx_buffer[i] = 0U;
 8001f66:	4a5b      	ldr	r2, [pc, #364]	@ (80020d4 <EX029_I2C1_IT_WriteRead_NACK_Test+0x188>)
 8001f68:	68fb      	ldr	r3, [r7, #12]
 8001f6a:	4413      	add	r3, r2
 8001f6c:	2200      	movs	r2, #0
 8001f6e:	701a      	strb	r2, [r3, #0]
    for (uint32_t i = 0U; i < sizeof(g_i2c1_rx_buffer); i++)
 8001f70:	68fb      	ldr	r3, [r7, #12]
 8001f72:	3301      	adds	r3, #1
 8001f74:	60fb      	str	r3, [r7, #12]
 8001f76:	68fb      	ldr	r3, [r7, #12]
 8001f78:	2b04      	cmp	r3, #4
 8001f7a:	d9f4      	bls.n	8001f66 <EX029_I2C1_IT_WriteRead_NACK_Test+0x1a>
    }

    I2C_ClearNACKFlag(I2C1);
 8001f7c:	4856      	ldr	r0, [pc, #344]	@ (80020d8 <EX029_I2C1_IT_WriteRead_NACK_Test+0x18c>)
 8001f7e:	f7ff f810 	bl	8000fa2 <I2C_ClearNACKFlag>
    I2C_ClearSTOPFlag(I2C1);
 8001f82:	4855      	ldr	r0, [pc, #340]	@ (80020d8 <EX029_I2C1_IT_WriteRead_NACK_Test+0x18c>)
 8001f84:	f7fe fffc 	bl	8000f80 <I2C_ClearSTOPFlag>
    I2C_ClearErrorFlags(I2C1);
 8001f88:	4853      	ldr	r0, [pc, #332]	@ (80020d8 <EX029_I2C1_IT_WriteRead_NACK_Test+0x18c>)
 8001f8a:	f7fe ffe7 	bl	8000f5c <I2C_ClearErrorFlags>

    NVIC_IRQPriorityConfig(IRQ_NO_I2C1_EV, 15U);
 8001f8e:	210f      	movs	r1, #15
 8001f90:	201f      	movs	r0, #31
 8001f92:	f7ff fb2f 	bl	80015f4 <NVIC_IRQPriorityConfig>
    NVIC_IRQPriorityConfig(IRQ_NO_I2C1_ER, 15U);
 8001f96:	210f      	movs	r1, #15
 8001f98:	2020      	movs	r0, #32
 8001f9a:	f7ff fb2b 	bl	80015f4 <NVIC_IRQPriorityConfig>

    g_i2c1_transfer_done = 0U;
 8001f9e:	4b4f      	ldr	r3, [pc, #316]	@ (80020dc <EX029_I2C1_IT_WriteRead_NACK_Test+0x190>)
 8001fa0:	2200      	movs	r2, #0
 8001fa2:	701a      	strb	r2, [r3, #0]
    g_i2c1_callback_event = 0xFFU;
 8001fa4:	4b4e      	ldr	r3, [pc, #312]	@ (80020e0 <EX029_I2C1_IT_WriteRead_NACK_Test+0x194>)
 8001fa6:	22ff      	movs	r2, #255	@ 0xff
 8001fa8:	701a      	strb	r2, [r3, #0]

    g_test_done = 0U;
 8001faa:	4b4e      	ldr	r3, [pc, #312]	@ (80020e4 <EX029_I2C1_IT_WriteRead_NACK_Test+0x198>)
 8001fac:	2200      	movs	r2, #0
 8001fae:	701a      	strb	r2, [r3, #0]
    g_test_timeout = 0U;
 8001fb0:	4b4d      	ldr	r3, [pc, #308]	@ (80020e8 <EX029_I2C1_IT_WriteRead_NACK_Test+0x19c>)
 8001fb2:	2200      	movs	r2, #0
 8001fb4:	701a      	strb	r2, [r3, #0]
     * Try write-read to non-existing slave address.
     *
     * Expected:
     * Address phase NACK before register byte is sent.
     */
    status = I2C_MasterWriteReadIT(&I2C1Handle,
 8001fb6:	2305      	movs	r3, #5
 8001fb8:	9302      	str	r3, [sp, #8]
 8001fba:	4b46      	ldr	r3, [pc, #280]	@ (80020d4 <EX029_I2C1_IT_WriteRead_NACK_Test+0x188>)
 8001fbc:	9301      	str	r3, [sp, #4]
 8001fbe:	2301      	movs	r3, #1
 8001fc0:	9300      	str	r3, [sp, #0]
 8001fc2:	4b4a      	ldr	r3, [pc, #296]	@ (80020ec <EX029_I2C1_IT_WriteRead_NACK_Test+0x1a0>)
 8001fc4:	2200      	movs	r2, #0
 8001fc6:	2155      	movs	r1, #85	@ 0x55
 8001fc8:	4849      	ldr	r0, [pc, #292]	@ (80020f0 <EX029_I2C1_IT_WriteRead_NACK_Test+0x1a4>)
 8001fca:	f7ff f89f 	bl	800110c <I2C_MasterWriteReadIT>
 8001fce:	4603      	mov	r3, r0
 8001fd0:	72fb      	strb	r3, [r7, #11]
                                   &g_i2c1_reg_addr,
                                   1U,
                                   g_i2c1_rx_buffer,
                                   sizeof(g_i2c1_rx_buffer));

    g_i2c1_transfer_status = status;
 8001fd2:	4a48      	ldr	r2, [pc, #288]	@ (80020f4 <EX029_I2C1_IT_WriteRead_NACK_Test+0x1a8>)
 8001fd4:	7afb      	ldrb	r3, [r7, #11]
 8001fd6:	7013      	strb	r3, [r2, #0]

    if (status != I2C_STATUS_OK)
 8001fd8:	7afb      	ldrb	r3, [r7, #11]
 8001fda:	2b00      	cmp	r3, #0
 8001fdc:	d003      	beq.n	8001fe6 <EX029_I2C1_IT_WriteRead_NACK_Test+0x9a>
    {
        g_test_done = 1U;
 8001fde:	4b41      	ldr	r3, [pc, #260]	@ (80020e4 <EX029_I2C1_IT_WriteRead_NACK_Test+0x198>)
 8001fe0:	2201      	movs	r2, #1
 8001fe2:	701a      	strb	r2, [r3, #0]
 8001fe4:	e007      	b.n	8001ff6 <EX029_I2C1_IT_WriteRead_NACK_Test+0xaa>
    }
    else
    {
        NVIC_IRQInterruptConfig(IRQ_NO_I2C1_ER, ENABLE);
 8001fe6:	2101      	movs	r1, #1
 8001fe8:	2020      	movs	r0, #32
 8001fea:	f7ff fad3 	bl	8001594 <NVIC_IRQInterruptConfig>
        NVIC_IRQInterruptConfig(IRQ_NO_I2C1_EV, ENABLE);
 8001fee:	2101      	movs	r1, #1
 8001ff0:	201f      	movs	r0, #31
 8001ff2:	f7ff facf 	bl	8001594 <NVIC_IRQInterruptConfig>
    }

    start_tick = millis();
 8001ff6:	f7ff fd7d 	bl	8001af4 <millis>
 8001ffa:	6078      	str	r0, [r7, #4]

    while (1)
    {
        if (g_i2c1_transfer_done == 1U)
 8001ffc:	4b37      	ldr	r3, [pc, #220]	@ (80020dc <EX029_I2C1_IT_WriteRead_NACK_Test+0x190>)
 8001ffe:	781b      	ldrb	r3, [r3, #0]
 8002000:	b2db      	uxtb	r3, r3
 8002002:	2b01      	cmp	r3, #1
 8002004:	d128      	bne.n	8002058 <EX029_I2C1_IT_WriteRead_NACK_Test+0x10c>
        {
            g_i2c1_final_error_code = I2C1Handle.ErrorCode;
 8002006:	4b3a      	ldr	r3, [pc, #232]	@ (80020f0 <EX029_I2C1_IT_WriteRead_NACK_Test+0x1a4>)
 8002008:	f893 3021 	ldrb.w	r3, [r3, #33]	@ 0x21
 800200c:	b2da      	uxtb	r2, r3
 800200e:	4b3a      	ldr	r3, [pc, #232]	@ (80020f8 <EX029_I2C1_IT_WriteRead_NACK_Test+0x1ac>)
 8002010:	701a      	strb	r2, [r3, #0]
            g_i2c1_final_state = I2C1Handle.TxRxState;
 8002012:	4b37      	ldr	r3, [pc, #220]	@ (80020f0 <EX029_I2C1_IT_WriteRead_NACK_Test+0x1a4>)
 8002014:	f893 3020 	ldrb.w	r3, [r3, #32]
 8002018:	b2da      	uxtb	r2, r3
 800201a:	4b38      	ldr	r3, [pc, #224]	@ (80020fc <EX029_I2C1_IT_WriteRead_NACK_Test+0x1b0>)
 800201c:	701a      	strb	r2, [r3, #0]
            g_i2c1_final_xfer_mode = I2C1Handle.XferMode;
 800201e:	4b34      	ldr	r3, [pc, #208]	@ (80020f0 <EX029_I2C1_IT_WriteRead_NACK_Test+0x1a4>)
 8002020:	f893 3022 	ldrb.w	r3, [r3, #34]	@ 0x22
 8002024:	b2da      	uxtb	r2, r3
 8002026:	4b36      	ldr	r3, [pc, #216]	@ (8002100 <EX029_I2C1_IT_WriteRead_NACK_Test+0x1b4>)
 8002028:	701a      	strb	r2, [r3, #0]
            g_i2c1_final_tx_len = I2C1Handle.TxLen;
 800202a:	4b31      	ldr	r3, [pc, #196]	@ (80020f0 <EX029_I2C1_IT_WriteRead_NACK_Test+0x1a4>)
 800202c:	695b      	ldr	r3, [r3, #20]
 800202e:	4a35      	ldr	r2, [pc, #212]	@ (8002104 <EX029_I2C1_IT_WriteRead_NACK_Test+0x1b8>)
 8002030:	6013      	str	r3, [r2, #0]
            g_i2c1_final_rx_len = I2C1Handle.RxLen;
 8002032:	4b2f      	ldr	r3, [pc, #188]	@ (80020f0 <EX029_I2C1_IT_WriteRead_NACK_Test+0x1a4>)
 8002034:	699b      	ldr	r3, [r3, #24]
 8002036:	4a34      	ldr	r2, [pc, #208]	@ (8002108 <EX029_I2C1_IT_WriteRead_NACK_Test+0x1bc>)
 8002038:	6013      	str	r3, [r2, #0]

            g_i2c1_final_isr = I2C1->I2C_ISR;
 800203a:	4b27      	ldr	r3, [pc, #156]	@ (80020d8 <EX029_I2C1_IT_WriteRead_NACK_Test+0x18c>)
 800203c:	699b      	ldr	r3, [r3, #24]
 800203e:	4a33      	ldr	r2, [pc, #204]	@ (800210c <EX029_I2C1_IT_WriteRead_NACK_Test+0x1c0>)
 8002040:	6013      	str	r3, [r2, #0]
            g_i2c1_final_cr1 = I2C1->I2C_CR1;
 8002042:	4b25      	ldr	r3, [pc, #148]	@ (80020d8 <EX029_I2C1_IT_WriteRead_NACK_Test+0x18c>)
 8002044:	681b      	ldr	r3, [r3, #0]
 8002046:	4a32      	ldr	r2, [pc, #200]	@ (8002110 <EX029_I2C1_IT_WriteRead_NACK_Test+0x1c4>)
 8002048:	6013      	str	r3, [r2, #0]
            g_i2c1_final_cr2 = I2C1->I2C_CR2;
 800204a:	4b23      	ldr	r3, [pc, #140]	@ (80020d8 <EX029_I2C1_IT_WriteRead_NACK_Test+0x18c>)
 800204c:	685b      	ldr	r3, [r3, #4]
 800204e:	4a31      	ldr	r2, [pc, #196]	@ (8002114 <EX029_I2C1_IT_WriteRead_NACK_Test+0x1c8>)
 8002050:	6013      	str	r3, [r2, #0]

            g_test_done = 1U;
 8002052:	4b24      	ldr	r3, [pc, #144]	@ (80020e4 <EX029_I2C1_IT_WriteRead_NACK_Test+0x198>)
 8002054:	2201      	movs	r2, #1
 8002056:	701a      	strb	r2, [r3, #0]
        }

        if ((millis() - start_tick) >= 1000U)
 8002058:	f7ff fd4c 	bl	8001af4 <millis>
 800205c:	4602      	mov	r2, r0
 800205e:	687b      	ldr	r3, [r7, #4]
 8002060:	1ad3      	subs	r3, r2, r3
 8002062:	f5b3 7f7a 	cmp.w	r3, #1000	@ 0x3e8
 8002066:	d32b      	bcc.n	80020c0 <EX029_I2C1_IT_WriteRead_NACK_Test+0x174>
        {
            g_test_timeout = 1U;
 8002068:	4b1f      	ldr	r3, [pc, #124]	@ (80020e8 <EX029_I2C1_IT_WriteRead_NACK_Test+0x19c>)
 800206a:	2201      	movs	r2, #1
 800206c:	701a      	strb	r2, [r3, #0]

            g_i2c1_final_error_code = I2C1Handle.ErrorCode;
 800206e:	4b20      	ldr	r3, [pc, #128]	@ (80020f0 <EX029_I2C1_IT_WriteRead_NACK_Test+0x1a4>)
 8002070:	f893 3021 	ldrb.w	r3, [r3, #33]	@ 0x21
 8002074:	b2da      	uxtb	r2, r3
 8002076:	4b20      	ldr	r3, [pc, #128]	@ (80020f8 <EX029_I2C1_IT_WriteRead_NACK_Test+0x1ac>)
 8002078:	701a      	strb	r2, [r3, #0]
            g_i2c1_final_state = I2C1Handle.TxRxState;
 800207a:	4b1d      	ldr	r3, [pc, #116]	@ (80020f0 <EX029_I2C1_IT_WriteRead_NACK_Test+0x1a4>)
 800207c:	f893 3020 	ldrb.w	r3, [r3, #32]
 8002080:	b2da      	uxtb	r2, r3
 8002082:	4b1e      	ldr	r3, [pc, #120]	@ (80020fc <EX029_I2C1_IT_WriteRead_NACK_Test+0x1b0>)
 8002084:	701a      	strb	r2, [r3, #0]
            g_i2c1_final_xfer_mode = I2C1Handle.XferMode;
 8002086:	4b1a      	ldr	r3, [pc, #104]	@ (80020f0 <EX029_I2C1_IT_WriteRead_NACK_Test+0x1a4>)
 8002088:	f893 3022 	ldrb.w	r3, [r3, #34]	@ 0x22
 800208c:	b2da      	uxtb	r2, r3
 800208e:	4b1c      	ldr	r3, [pc, #112]	@ (8002100 <EX029_I2C1_IT_WriteRead_NACK_Test+0x1b4>)
 8002090:	701a      	strb	r2, [r3, #0]
            g_i2c1_final_tx_len = I2C1Handle.TxLen;
 8002092:	4b17      	ldr	r3, [pc, #92]	@ (80020f0 <EX029_I2C1_IT_WriteRead_NACK_Test+0x1a4>)
 8002094:	695b      	ldr	r3, [r3, #20]
 8002096:	4a1b      	ldr	r2, [pc, #108]	@ (8002104 <EX029_I2C1_IT_WriteRead_NACK_Test+0x1b8>)
 8002098:	6013      	str	r3, [r2, #0]
            g_i2c1_final_rx_len = I2C1Handle.RxLen;
 800209a:	4b15      	ldr	r3, [pc, #84]	@ (80020f0 <EX029_I2C1_IT_WriteRead_NACK_Test+0x1a4>)
 800209c:	699b      	ldr	r3, [r3, #24]
 800209e:	4a1a      	ldr	r2, [pc, #104]	@ (8002108 <EX029_I2C1_IT_WriteRead_NACK_Test+0x1bc>)
 80020a0:	6013      	str	r3, [r2, #0]

            g_i2c1_final_isr = I2C1->I2C_ISR;
 80020a2:	4b0d      	ldr	r3, [pc, #52]	@ (80020d8 <EX029_I2C1_IT_WriteRead_NACK_Test+0x18c>)
 80020a4:	699b      	ldr	r3, [r3, #24]
 80020a6:	4a19      	ldr	r2, [pc, #100]	@ (800210c <EX029_I2C1_IT_WriteRead_NACK_Test+0x1c0>)
 80020a8:	6013      	str	r3, [r2, #0]
            g_i2c1_final_cr1 = I2C1->I2C_CR1;
 80020aa:	4b0b      	ldr	r3, [pc, #44]	@ (80020d8 <EX029_I2C1_IT_WriteRead_NACK_Test+0x18c>)
 80020ac:	681b      	ldr	r3, [r3, #0]
 80020ae:	4a18      	ldr	r2, [pc, #96]	@ (8002110 <EX029_I2C1_IT_WriteRead_NACK_Test+0x1c4>)
 80020b0:	6013      	str	r3, [r2, #0]
            g_i2c1_final_cr2 = I2C1->I2C_CR2;
 80020b2:	4b09      	ldr	r3, [pc, #36]	@ (80020d8 <EX029_I2C1_IT_WriteRead_NACK_Test+0x18c>)
 80020b4:	685b      	ldr	r3, [r3, #4]
 80020b6:	4a17      	ldr	r2, [pc, #92]	@ (8002114 <EX029_I2C1_IT_WriteRead_NACK_Test+0x1c8>)
 80020b8:	6013      	str	r3, [r2, #0]

            g_test_done = 1U;
 80020ba:	4b0a      	ldr	r3, [pc, #40]	@ (80020e4 <EX029_I2C1_IT_WriteRead_NACK_Test+0x198>)
 80020bc:	2201      	movs	r2, #1
 80020be:	701a      	strb	r2, [r3, #0]
        }

        if (g_test_done == 1U)
 80020c0:	4b08      	ldr	r3, [pc, #32]	@ (80020e4 <EX029_I2C1_IT_WriteRead_NACK_Test+0x198>)
 80020c2:	781b      	ldrb	r3, [r3, #0]
 80020c4:	b2db      	uxtb	r3, r3
 80020c6:	2b01      	cmp	r3, #1
 80020c8:	d198      	bne.n	8001ffc <EX029_I2C1_IT_WriteRead_NACK_Test+0xb0>
             * g_i2c1_final_error_code has I2C_ERROR_NACK bit set
             * g_i2c1_final_state = I2C_READY
             * g_i2c1_final_xfer_mode = I2C_XFER_MODE_NONE
             * g_i2c1_final_tx_len = 0
             */
            while (1)
 80020ca:	bf00      	nop
 80020cc:	e7fd      	b.n	80020ca <EX029_I2C1_IT_WriteRead_NACK_Test+0x17e>
 80020ce:	bf00      	nop
 80020d0:	00f42400 	.word	0x00f42400
 80020d4:	200000d0 	.word	0x200000d0
 80020d8:	40005400 	.word	0x40005400
 80020dc:	200000d6 	.word	0x200000d6
 80020e0:	20000001 	.word	0x20000001
 80020e4:	200000f4 	.word	0x200000f4
 80020e8:	200000f5 	.word	0x200000f5
 80020ec:	20000000 	.word	0x20000000
 80020f0:	200000ac 	.word	0x200000ac
 80020f4:	200000d5 	.word	0x200000d5
 80020f8:	200000f6 	.word	0x200000f6
 80020fc:	200000f7 	.word	0x200000f7
 8002100:	200000f8 	.word	0x200000f8
 8002104:	200000fc 	.word	0x200000fc
 8002108:	20000100 	.word	0x20000100
 800210c:	20000104 	.word	0x20000104
 8002110:	20000108 	.word	0x20000108
 8002114:	2000010c 	.word	0x2000010c

08002118 <I2C_ApplicationEventCallback>:
    }
}

void I2C_ApplicationEventCallback(I2C_Handle_t *pI2CHandle,
                                  uint8_t Event)
{
 8002118:	b480      	push	{r7}
 800211a:	b083      	sub	sp, #12
 800211c:	af00      	add	r7, sp, #0
 800211e:	6078      	str	r0, [r7, #4]
 8002120:	460b      	mov	r3, r1
 8002122:	70fb      	strb	r3, [r7, #3]
    if (pI2CHandle->pI2Cx == I2C1)
 8002124:	687b      	ldr	r3, [r7, #4]
 8002126:	681b      	ldr	r3, [r3, #0]
 8002128:	4a33      	ldr	r2, [pc, #204]	@ (80021f8 <I2C_ApplicationEventCallback+0xe0>)
 800212a:	4293      	cmp	r3, r2
 800212c:	d15d      	bne.n	80021ea <I2C_ApplicationEventCallback+0xd2>
    {
        g_i2c1_callback_event = Event;
 800212e:	4a33      	ldr	r2, [pc, #204]	@ (80021fc <I2C_ApplicationEventCallback+0xe4>)
 8002130:	78fb      	ldrb	r3, [r7, #3]
 8002132:	7013      	strb	r3, [r2, #0]

        if (Event == I2C_EVENT_WR_RD_CMPLT)
 8002134:	78fb      	ldrb	r3, [r7, #3]
 8002136:	2b08      	cmp	r3, #8
 8002138:	d108      	bne.n	800214c <I2C_ApplicationEventCallback+0x34>
        {
            g_i2c1_wr_rd_complete_count++;
 800213a:	4b31      	ldr	r3, [pc, #196]	@ (8002200 <I2C_ApplicationEventCallback+0xe8>)
 800213c:	681b      	ldr	r3, [r3, #0]
 800213e:	3301      	adds	r3, #1
 8002140:	4a2f      	ldr	r2, [pc, #188]	@ (8002200 <I2C_ApplicationEventCallback+0xe8>)
 8002142:	6013      	str	r3, [r2, #0]
            g_i2c1_transfer_done = 1U;
 8002144:	4b2f      	ldr	r3, [pc, #188]	@ (8002204 <I2C_ApplicationEventCallback+0xec>)
 8002146:	2201      	movs	r2, #1
 8002148:	701a      	strb	r2, [r3, #0]
            g_i2c1_timeout_count++;
            g_i2c1_error_count++;
            g_i2c1_transfer_done = 1U;
        }
    }
}
 800214a:	e04e      	b.n	80021ea <I2C_ApplicationEventCallback+0xd2>
        else if (Event == I2C_EVENT_NACK)
 800214c:	78fb      	ldrb	r3, [r7, #3]
 800214e:	2b03      	cmp	r3, #3
 8002150:	d108      	bne.n	8002164 <I2C_ApplicationEventCallback+0x4c>
            g_i2c1_nack_count++;
 8002152:	4b2d      	ldr	r3, [pc, #180]	@ (8002208 <I2C_ApplicationEventCallback+0xf0>)
 8002154:	681b      	ldr	r3, [r3, #0]
 8002156:	3301      	adds	r3, #1
 8002158:	4a2b      	ldr	r2, [pc, #172]	@ (8002208 <I2C_ApplicationEventCallback+0xf0>)
 800215a:	6013      	str	r3, [r2, #0]
            g_i2c1_transfer_done = 1U;
 800215c:	4b29      	ldr	r3, [pc, #164]	@ (8002204 <I2C_ApplicationEventCallback+0xec>)
 800215e:	2201      	movs	r2, #1
 8002160:	701a      	strb	r2, [r3, #0]
}
 8002162:	e042      	b.n	80021ea <I2C_ApplicationEventCallback+0xd2>
        else if (Event == I2C_EVENT_BERR)
 8002164:	78fb      	ldrb	r3, [r7, #3]
 8002166:	2b04      	cmp	r3, #4
 8002168:	d10d      	bne.n	8002186 <I2C_ApplicationEventCallback+0x6e>
            g_i2c1_berr_count++;
 800216a:	4b28      	ldr	r3, [pc, #160]	@ (800220c <I2C_ApplicationEventCallback+0xf4>)
 800216c:	681b      	ldr	r3, [r3, #0]
 800216e:	3301      	adds	r3, #1
 8002170:	4a26      	ldr	r2, [pc, #152]	@ (800220c <I2C_ApplicationEventCallback+0xf4>)
 8002172:	6013      	str	r3, [r2, #0]
            g_i2c1_error_count++;
 8002174:	4b26      	ldr	r3, [pc, #152]	@ (8002210 <I2C_ApplicationEventCallback+0xf8>)
 8002176:	681b      	ldr	r3, [r3, #0]
 8002178:	3301      	adds	r3, #1
 800217a:	4a25      	ldr	r2, [pc, #148]	@ (8002210 <I2C_ApplicationEventCallback+0xf8>)
 800217c:	6013      	str	r3, [r2, #0]
            g_i2c1_transfer_done = 1U;
 800217e:	4b21      	ldr	r3, [pc, #132]	@ (8002204 <I2C_ApplicationEventCallback+0xec>)
 8002180:	2201      	movs	r2, #1
 8002182:	701a      	strb	r2, [r3, #0]
}
 8002184:	e031      	b.n	80021ea <I2C_ApplicationEventCallback+0xd2>
        else if (Event == I2C_EVENT_ARLO)
 8002186:	78fb      	ldrb	r3, [r7, #3]
 8002188:	2b05      	cmp	r3, #5
 800218a:	d10d      	bne.n	80021a8 <I2C_ApplicationEventCallback+0x90>
            g_i2c1_arlo_count++;
 800218c:	4b21      	ldr	r3, [pc, #132]	@ (8002214 <I2C_ApplicationEventCallback+0xfc>)
 800218e:	681b      	ldr	r3, [r3, #0]
 8002190:	3301      	adds	r3, #1
 8002192:	4a20      	ldr	r2, [pc, #128]	@ (8002214 <I2C_ApplicationEventCallback+0xfc>)
 8002194:	6013      	str	r3, [r2, #0]
            g_i2c1_error_count++;
 8002196:	4b1e      	ldr	r3, [pc, #120]	@ (8002210 <I2C_ApplicationEventCallback+0xf8>)
 8002198:	681b      	ldr	r3, [r3, #0]
 800219a:	3301      	adds	r3, #1
 800219c:	4a1c      	ldr	r2, [pc, #112]	@ (8002210 <I2C_ApplicationEventCallback+0xf8>)
 800219e:	6013      	str	r3, [r2, #0]
            g_i2c1_transfer_done = 1U;
 80021a0:	4b18      	ldr	r3, [pc, #96]	@ (8002204 <I2C_ApplicationEventCallback+0xec>)
 80021a2:	2201      	movs	r2, #1
 80021a4:	701a      	strb	r2, [r3, #0]
}
 80021a6:	e020      	b.n	80021ea <I2C_ApplicationEventCallback+0xd2>
        else if (Event == I2C_EVENT_OVR)
 80021a8:	78fb      	ldrb	r3, [r7, #3]
 80021aa:	2b06      	cmp	r3, #6
 80021ac:	d10d      	bne.n	80021ca <I2C_ApplicationEventCallback+0xb2>
            g_i2c1_ovr_count++;
 80021ae:	4b1a      	ldr	r3, [pc, #104]	@ (8002218 <I2C_ApplicationEventCallback+0x100>)
 80021b0:	681b      	ldr	r3, [r3, #0]
 80021b2:	3301      	adds	r3, #1
 80021b4:	4a18      	ldr	r2, [pc, #96]	@ (8002218 <I2C_ApplicationEventCallback+0x100>)
 80021b6:	6013      	str	r3, [r2, #0]
            g_i2c1_error_count++;
 80021b8:	4b15      	ldr	r3, [pc, #84]	@ (8002210 <I2C_ApplicationEventCallback+0xf8>)
 80021ba:	681b      	ldr	r3, [r3, #0]
 80021bc:	3301      	adds	r3, #1
 80021be:	4a14      	ldr	r2, [pc, #80]	@ (8002210 <I2C_ApplicationEventCallback+0xf8>)
 80021c0:	6013      	str	r3, [r2, #0]
            g_i2c1_transfer_done = 1U;
 80021c2:	4b10      	ldr	r3, [pc, #64]	@ (8002204 <I2C_ApplicationEventCallback+0xec>)
 80021c4:	2201      	movs	r2, #1
 80021c6:	701a      	strb	r2, [r3, #0]
}
 80021c8:	e00f      	b.n	80021ea <I2C_ApplicationEventCallback+0xd2>
        else if (Event == I2C_EVENT_TIMEOUT)
 80021ca:	78fb      	ldrb	r3, [r7, #3]
 80021cc:	2b07      	cmp	r3, #7
 80021ce:	d10c      	bne.n	80021ea <I2C_ApplicationEventCallback+0xd2>
            g_i2c1_timeout_count++;
 80021d0:	4b12      	ldr	r3, [pc, #72]	@ (800221c <I2C_ApplicationEventCallback+0x104>)
 80021d2:	681b      	ldr	r3, [r3, #0]
 80021d4:	3301      	adds	r3, #1
 80021d6:	4a11      	ldr	r2, [pc, #68]	@ (800221c <I2C_ApplicationEventCallback+0x104>)
 80021d8:	6013      	str	r3, [r2, #0]
            g_i2c1_error_count++;
 80021da:	4b0d      	ldr	r3, [pc, #52]	@ (8002210 <I2C_ApplicationEventCallback+0xf8>)
 80021dc:	681b      	ldr	r3, [r3, #0]
 80021de:	3301      	adds	r3, #1
 80021e0:	4a0b      	ldr	r2, [pc, #44]	@ (8002210 <I2C_ApplicationEventCallback+0xf8>)
 80021e2:	6013      	str	r3, [r2, #0]
            g_i2c1_transfer_done = 1U;
 80021e4:	4b07      	ldr	r3, [pc, #28]	@ (8002204 <I2C_ApplicationEventCallback+0xec>)
 80021e6:	2201      	movs	r2, #1
 80021e8:	701a      	strb	r2, [r3, #0]
}
 80021ea:	bf00      	nop
 80021ec:	370c      	adds	r7, #12
 80021ee:	46bd      	mov	sp, r7
 80021f0:	f85d 7b04 	ldr.w	r7, [sp], #4
 80021f4:	4770      	bx	lr
 80021f6:	bf00      	nop
 80021f8:	40005400 	.word	0x40005400
 80021fc:	20000001 	.word	0x20000001
 8002200:	200000d8 	.word	0x200000d8
 8002204:	200000d6 	.word	0x200000d6
 8002208:	200000dc 	.word	0x200000dc
 800220c:	200000e4 	.word	0x200000e4
 8002210:	200000e0 	.word	0x200000e0
 8002214:	200000e8 	.word	0x200000e8
 8002218:	200000ec 	.word	0x200000ec
 800221c:	200000f0 	.word	0x200000f0

08002220 <__libc_init_array>:
 8002220:	b570      	push	{r4, r5, r6, lr}
 8002222:	4d0d      	ldr	r5, [pc, #52]	@ (8002258 <__libc_init_array+0x38>)
 8002224:	4c0d      	ldr	r4, [pc, #52]	@ (800225c <__libc_init_array+0x3c>)
 8002226:	1b64      	subs	r4, r4, r5
 8002228:	10a4      	asrs	r4, r4, #2
 800222a:	2600      	movs	r6, #0
 800222c:	42a6      	cmp	r6, r4
 800222e:	d109      	bne.n	8002244 <__libc_init_array+0x24>
 8002230:	4d0b      	ldr	r5, [pc, #44]	@ (8002260 <__libc_init_array+0x40>)
 8002232:	4c0c      	ldr	r4, [pc, #48]	@ (8002264 <__libc_init_array+0x44>)
 8002234:	f000 f818 	bl	8002268 <_init>
 8002238:	1b64      	subs	r4, r4, r5
 800223a:	10a4      	asrs	r4, r4, #2
 800223c:	2600      	movs	r6, #0
 800223e:	42a6      	cmp	r6, r4
 8002240:	d105      	bne.n	800224e <__libc_init_array+0x2e>
 8002242:	bd70      	pop	{r4, r5, r6, pc}
 8002244:	f855 3b04 	ldr.w	r3, [r5], #4
 8002248:	4798      	blx	r3
 800224a:	3601      	adds	r6, #1
 800224c:	e7ee      	b.n	800222c <__libc_init_array+0xc>
 800224e:	f855 3b04 	ldr.w	r3, [r5], #4
 8002252:	4798      	blx	r3
 8002254:	3601      	adds	r6, #1
 8002256:	e7f2      	b.n	800223e <__libc_init_array+0x1e>
 8002258:	08002280 	.word	0x08002280
 800225c:	08002280 	.word	0x08002280
 8002260:	08002280 	.word	0x08002280
 8002264:	08002284 	.word	0x08002284

08002268 <_init>:
 8002268:	b5f8      	push	{r3, r4, r5, r6, r7, lr}
 800226a:	bf00      	nop
 800226c:	bcf8      	pop	{r3, r4, r5, r6, r7}
 800226e:	bc08      	pop	{r3}
 8002270:	469e      	mov	lr, r3
 8002272:	4770      	bx	lr

08002274 <_fini>:
 8002274:	b5f8      	push	{r3, r4, r5, r6, r7, lr}
 8002276:	bf00      	nop
 8002278:	bcf8      	pop	{r3, r4, r5, r6, r7}
 800227a:	bc08      	pop	{r3}
 800227c:	469e      	mov	lr, r3
 800227e:	4770      	bx	lr
